_nanoseconds_to_absolutetime
__ZN22_IOOpenServiceIteratorC1Ev
_splsoftclock
__ZN18IORegistryIterator9metaClassE
_log
_mbuf_pkthdr_adjustlen
_buf_setcount
__ZN7OSArrayC1Ev
__ZN21IOSubMemoryDescriptor10superClassE
_copyin
__ZN29IOInterleavedMemoryDescriptor10gMetaClassE
__ZN12IOUserClient23releaseAsyncReference64EPy
__ZN16IOKitDiagnosticsC2EPK11OSMetaClass
__ZN21IOSubMemoryDescriptor16getPreparationIDEv
__ZN17IOPowerConnectionC1EPK11OSMetaClass
__ZN9IOService13newUserClientEP4taskPvmPP12IOUserClient
__ZTVN17IOPowerConnection9MetaClassE
__ZTV16IOPlatformDevice
__ZN14IOPMrootDomain19sysPowerDownHandlerEPvS0_mP9IOServiceS0_j
_vfs_mountedon
_clock_get_calendar_microtime
__ZN18IOMemoryDescriptor9readBytesEmPvm
__ZN9IOService15probeCandidatesEP12OSOrderedSet
_IOFreePageable
__ZNK7OSArray20getNextIndexOfObjectEPK15OSMetaClassBasej
__ZN25IOGeneralMemoryDescriptorC2EPK11OSMetaClass
__ZN13IOEventSource23_RESERVEDIOEventSource2Ev
_buf_markaged
_kfree
_uio_isuserspace
__ZN8OSSymbol18_RESERVEDOSSymbol2Ev
_semaphore_wait_noblock
_ttspeedtab
_memcmp
_gIOServiceKey
_zError
_buf_breadn
__ZNK10OSIterator12getMetaClassEv
_vnode_getwithref
__ZN24IOBufferMemoryDescriptor9MetaClassC1Ev
__ZN16IOPlatformExpert10superClassE
__ZNK8IOMapper9MetaClass5allocEv
_aes_decrypt_key
__ZN12IOPMinformeeC2EPK11OSMetaClass
__ZdlPv
__ZN9IOService28serializedCancelPowerChange2Em
_kev_msg_post
__ZN13_IOServiceJob9MetaClassC1Ev
__ZN21IOSubMemoryDescriptor12withSubRangeEP18IOMemoryDescriptormmm
__ZN12OSOrderedSet22_RESERVEDOSOrderedSet2Ev
__ZN17IOPolledInterface27_RESERVEDIOPolledInterface5Ev
__ZN16IODMAEventSourceC1EPK11OSMetaClass
__ZTVN23IOMultiMemoryDescriptor9MetaClassE
__ZN14IOPMrootDomain12wakeFromDozeEv
_IORecursiveLockUnlock
_selthreadclear
__ZN5IOCPU5startEP9IOService
__ZN21IOInterruptController31_RESERVEDIOInterruptController2Ev
_nop_open
__ZN9IOService20_RESERVEDIOService41Ev
__ZN10IOWorkLoop9MetaClassC1Ev
__ZN11OSSerialize10superClassE
__ZN18_IOServiceNotifierD2Ev
_serial_putc
__ZN12OSOrderedSet9setObjectEPK15OSMetaClassBase
__ZNK21IONaturalMemoryCursor12getMetaClassEv
_ifnet_input
_sock_nointerrupt
__ZN10IOWorkLoop4initEv
__ZN13IOCommandGate7disableEv
_nop_setattr
__ZNK8OSNumber9isEqualToEPK15OSMetaClassBase
__ZNK22IOInterruptEventSource11getProviderEv
__ZN10OSIterator9MetaClassC1Ev
_vnode_fsnode
__ZN27IOSharedInterruptController9metaClassE
_cdevsw_add
__ZNK6OSData14getBytesNoCopyEjj
_mbuf_set_csum_performed
_gIODTPHandleKey
__ZNK18IODTPlatformExpert12getMetaClassEv
__ZN18IOTimerEventSource10setTimeoutE12UnsignedWide
_ifnet_type
__ZN9IOService11tellClientsEi
_kauth_cred_ntsid2guid
_tty_unlock
_knote
_mbuf_set_traffic_class
_nop_strategy
_version_revision
__ZN12OSDictionary22_RESERVEDOSDictionary1Ev
__ZN17IOPowerConnection23setPreventIdleSleepFlagEm
_IOSimpleLockAlloc
_gIODTAddressCellKey
_mach_msg_send_from_kernel_with_options
__ZN5IOCPU15_RESERVEDIOCPU1Ev
__ZN15IOConditionLock10gMetaClassE
__ZTV15IORegistryPlane
__ZN9IOService14waitForServiceEP12OSDictionaryP13mach_timespec
__ZN13_IOServiceJobC1Ev
__ZN27IOSharedInterruptControllerC2EPK11OSMetaClass
_IONetworkNamePrefixMatching
__ZTV17IOPolledInterface
__ZTVN11IOMemoryMap9MetaClassE
__ZN14IOMemoryCursor10superClassE
__ZN15IOPMPowerSource17externalConnectedEv
__ZNK12OSDictionary20getCapacityIncrementEv
__ZN9IOService15getPMRootDomainEv
__ZN12OSSerializer10gMetaClassE
_q_to_b
_PEGetGMTTimeOfDay
__ZTV9IOService
_splclock
__ZN5OSSet15_RESERVEDOSSet3Ev
__ZN15IORegistryEntry11setPropertyEPKcPvj
_ifnet_release
__ZNK15OSMetaClassBase8metaCastEPK8OSSymbol
__ZNK8OSSymbol13taggedReleaseEPKvi
__ZNK9IOService9getClientEv
__ZN16IOPlatformExpert26_RESERVEDIOPlatformExpert5Ev
__ZN12OSSerializerC2Ev
_sysctl_handle_int
_lck_mtx_sleep_deadline
_kernel_pmap
__ZN17IOSharedDataQueue4peekEv
_cache_lookup
__ZN16IOPlatformExpert14setConsoleInfoEP8PE_Videoj
__ZTVN11OSSerialize9MetaClassE
_mbuf_setnext
__ZN18IOMemoryDescriptor10superClassE
__ZN15IOPMPowerSource4initEv
___cxa_pure_virtual
__ZTVN21IOSubMemoryDescriptor9MetaClassE
__ZN11IOMemoryMap18getPhysicalSegmentEmPm
__ZN12OSSymbolPool12insertSymbolEP8OSSymbol
_IOLogv
__ZN11OSMetaClass18reportModInstancesEPKc
__ZN15IOConditionLock12setConditionEi
__ZN5IOCPUD0Ev
__ZN8OSSymbol10withStringEPK8OSString
_IOBSDRegistryEntryForDeviceTree
__ZN16IOPlatformExpert26_RESERVEDIOPlatformExpert3Ev
__ZN16IOPlatformExpert5PMLogEPKcmmm
__ZTV8IOSyncer
__ZN28IOFilterInterruptEventSource4initEP8OSObjectPFvS1_P22IOInterruptEventSourceiEP9IOServicei
_vm_map_copyin
_nop_close
__ZN8OSObjectnwEm
__ZN26_IOServiceInterestNotifier9MetaClassC2Ev
_vfs_setioattr
_sbuf_new
_vnode_get
__ZNK14IOMemoryCursor12getMetaClassEv
__ZTV8OSNumber
_task_suspend
__ZN23IOMultiMemoryDescriptor4freeEv
_IOMappedRead64
_gIOPropertyMatchKey
__ZN13IOCommandPool23_RESERVEDIOCommandPool6Ev
_nop_bwrite
__ZN20IOLittleMemoryCursor9metaClassE
__ZNK15IORegistryEntry20getChildSetReferenceEPK15IORegistryPlane
_vfs_clearextendedsecurity
__ZN8OSNumberC2Ev
__ZN11IOMemoryMap10gMetaClassE
_gIOMatchedServiceCountKey
_ctl_enqueuembuf
__ZN17IOSharedDataQueue16initWithCapacityEm
_clalloc
__ZN6OSDataC2Ev
__ZN8OSStringC2EPK11OSMetaClass
__ZNK28IOFilterInterruptEventSource9MetaClass5allocEv
_ifnet_set_baudrate
__ZN15OSMetaClassBase25_RESERVEDOSMetaClassBase5Ev
_PESavePanicInfo
__ZNK13IOEventSource9getActionEv
__ZN9IOService11addLocationEP12OSDictionary
_nop_searchfs
_buf_setsize
__ZN17IOPolledInterface27_RESERVEDIOPolledInterface3Ev
__ZN8OSSymbolD0Ev
__ZN10IOMachPort10superClassE
__ZN28IOFilterInterruptEventSource20interruptEventSourceEP8OSObjectPFvS1_P22IOInterruptEventSourceiEP9IOServicei
__ZN18IOMemoryDescriptor8redirectEP4taskb
_uuid_generate_random
_mbuf_adjustlen
__ZN17IOPolledInterface28_RESERVEDIOPolledInterface11Ev
_net_add_domain
__ZN27IOSharedInterruptControllerC1EPK11OSMetaClass
__ZN26_IOServiceInterestNotifierC1Ev
_proc_tbe
__ZN20OSCollectionIterator4freeEv
__ZNK15IORegistryEntry8getDepthEPK15IORegistryPlane
__ZN8OSObjectD0Ev
__ZNK12IOPMinformee9MetaClass5allocEv
_strtouq
__ZN12IODMACommandC2EPK11OSMetaClass
__ZN8OSString7setCharEcj
__ZN18IOTimerEventSource28_RESERVEDIOTimerEventSource4Ev
__ZNK15IORegistryEntry11compareNameEP8OSStringPS1_
_kdebug_enable
_strncmp
__ZN17IOPowerConnection14setAwaitingAckEb
_throttle_info_release
__ZN25IOGeneralMemoryDescriptor10gMetaClassE
__ZN11IODataQueue9metaClassE
_rootvnode
__ZN16IORangeAllocatorC1EPK11OSMetaClass
__ZN9IOService22copyClientWithCategoryEPK8OSSymbol
__ZN11OSMetaClass12checkModLoadEPv
__ZN16IODMAEventSourceD0Ev
__ZN16IOPMinformeeList9metaClassE
__ZTVN16IODMAEventSource9MetaClassE
_text_crypter_create_hook_set
__ZN22IOInterruptEventSource23normalInterruptOccurredEPvP9IOServicei
__ZN11IOResources9MetaClassC1Ev
__ZN11IOCatalogue5resetEv
__ZN15IOPMPowerSource20setExternalConnectedEb
_vnode_ismonitored
_cluster_push_ext
_atoi
__ZN8IOSyncerD0Ev
__ZN18IOUserNotification9MetaClassC2Ev
__ZN9IOService20_RESERVEDIOService27Ev
__ZNK10OSIterator9MetaClass5allocEv
_buf_markinvalid
__ZN17IOSharedDataQueueC1Ev
_strncat
__ZN22_IOOpenServiceIterator9MetaClassC2Ev
__ZN12IOUserClientD2Ev
__ZN9IOService20_RESERVEDIOService37Ev
__Z16IODTSetResolvingP15IORegistryEntryPFlmPmS1_EPFvS0_PhS4_S4_E
__ZN6OSData9metaClassE
__ZN8OSNumber8setValueEy
__ZTV10OSIterator
_ifnet_find_by_name
__ZNK8OSNumber9isEqualToEPKS_
__ZNK12OSOrderedSet9MetaClass5allocEv
__ZN12OSSerializer9MetaClassC2Ev
__ZN15IODMAController18completeDMACommandEP16IODMAEventSourceP12IODMACommand
__ZN18IOMemoryDescriptor15initWithAddressEPvm11IODirection
__ZN12IOUserClient10getServiceEv
_IOSpinUnlock
__ZN12IOUserClient24getTargetAndTrapForIndexEPP9IOServicem
_vm_region_object_create
_ether_ioctl
__ZN9IOService19powerOverrideOnPrivEv
_soabort
__ZN12OSDictionary15initWithObjectsEPPK8OSObjectPPK8OSStringjj
__ZN12OSOrderedSet22_RESERVEDOSOrderedSet7Ev
__ZN5IOCPU15_RESERVEDIOCPU3Ev
__ZN20OSCollectionIterator18initWithCollectionEPK12OSCollection
_suword
__ZN18IODTPlatformExpert18getNVRAMPartitionsEv
__ZN14IOMemoryCursorC1EPK11OSMetaClass
__ZN15IORegistryEntry10gMetaClassE
__ZN29IOInterleavedMemoryDescriptor10superClassE
__ZNK18IOTimerEventSource9MetaClass5allocEv
__ZNK15IOConditionLock9MetaClass5allocEv
_ifnet_hdrlen
__ZN9IOService16removePowerChildEP17IOPowerConnection
__ZN20IOLittleMemoryCursorC2Ev
_IOMappedRead8
__ZN17IOSharedDataQueue7dequeueEPvPm
_ttymodem
_IOCPURunPlatformQuiesceActions
_buf_seterror
_sock_socket
_mbuf_setnextpkt
__ZNK11OSMetaClass12getMetaClassEv
__ZN16IODMAEventSource16notifyDMACommandEP12IODMACommandim
__ZN18IORegistryIterator22getNextObjectRecursiveEv
__ZN15IOPMPowerSource8locationEv
__ZNK15IORegistryEntry7inPlaneEPK15IORegistryPlane
_thread_deallocate
__ZN12IODMACommand14OutputLittle64EPS_NS_9Segment64EPvm
_tk_rawcc
_vfs_64bitready
__ZNK9IOCommand12getMetaClassEv
_tvtoabstime
__ZN10OSIterator20_RESERVEDOSIterator1Ev
__ZNK13_IOServiceJob12getMetaClassEv
_fifo_ioctl
__ZN8IOMapper18_RESERVEDIOMapper9Ev
_copyoutstr
_kernel_debug1
__ZN15IOPMPowerSource17setErrorConditionEP8OSSymbol
_gIOPriorityPowerStateInterest
_kernel_flock
__ZN16IOPlatformExpert11sleepKernelEv
__ZN16IOPlatformExpert25lookUpInterruptControllerEP8OSSymbol
_sysctl__vfs_generic
__ZN12IOUserClient23_RESERVEDIOUserClient12Ev
__ZN9IOService14doServiceMatchEm
__ZTV6OSData
_vfs_busy
__ZN13IOCommandGateD2Ev
__ZN9IOService23scheduleTerminatePhase2Em
_pru_rcvd_notsupp
__ZN26_IOServiceInterestNotifierD0Ev
_NDR_record
__ZN11IODataQueue10gMetaClassE
__ZN15IOPMPowerSource15currentCapacityEv
__ZN9IOService22acknowledgePowerChangeEPS_
_vfs_iswriteupgrade
_IOExitThread
_debug_ivars_size
__ZN9IOService9MetaClassC2Ev
_nop_whiteout
__ZN16IORangeAllocator10deallocateEmm
__ZNK8IOPMprot9MetaClass5allocEv
__ZN8OSSymbol4freeEv
_gIODTDefaultInterruptController
__ZN28IOFilterInterruptEventSource38_RESERVEDIOFilterInterruptEventSource3Ev
__ZN5OSSetC2EPK11OSMetaClass
__ZN18IOMemoryDescriptor3mapEP4taskjmmm
_lck_attr_alloc_init
_err_copyfile
__ZN24IOCPUInterruptControllerC1Ev
__ZNK8OSString12getMetaClassEv
__ZNK15IORegistryEntry8hasAliasEPK15IORegistryPlanePcPi
_ubc_sync_range
_ifnet_set_flags
__ZN8IOPMprot10gMetaClassE
__ZN12OSDictionary22_RESERVEDOSDictionary3Ev
__ZN11IOMemoryMap21_RESERVEDIOMemoryMap2Ev
__ZN12IOPMinformeeC1EPK11OSMetaClass
__ZN15IOWatchDogTimer25_RESERVEDIOWatchDogTimer3Ev
_ifaddr_withnet
__ZN26_IOServiceInterestNotifierC2Ev
__ZN8IOMapper9MetaClassC2Ev
__ZN12OSSymbolPool18reconstructSymbolsEv
__ZN9IOService11_adjustBusyEl
__ZN26_IOServiceInterestNotifier6enableEb
__ZN14IOPMrootDomain17setSleepSupportedEm
__ZN11IODataQueue29sendDataAvailableNotificationEv
__ZN17IONVRAMController9MetaClassC1Ev
_sorwakeup
__ZNK9IOService11getProviderEv
_mac_proc_set_enforce
__ZTV11OSMetaClass
_vnode_authorize
_gIODefaultMatchCategoryKey
__ZN12IODMACommandD0Ev
__ZTV11IODataQueue
__ZN21IONaturalMemoryCursorD0Ev
__ZN15IORegistryPlaneD2Ev
_OSBitOrAtomic
_registerSleepWakeInterest
_mach_msg_rpc_from_kernel
_lck_mtx_assert
_vnop_readdirattr_desc
__ZN12OSSerializerC2EPK11OSMetaClass
__ZN9IOService17comparePropertiesEP12OSDictionaryP12OSCollection
__ZN13IOEventSource8openGateEv
__ZN11IODataQueueC2Ev
__ZN8OSObject10superClassE
_vnop_close_desc
__ZN15IOConditionLock17initWithConditionEib
_lck_rw_free
_m_cat
_sooptcopyout
__ZTV12OSSerializer
_kauth_listen_scope
_suser
__ZN25IOGeneralMemoryDescriptor22initWithPhysicalRangesEP15IOPhysicalRangem11IODirectionb
_OSKextRetainKextWithLoadTag
_current_proc
__ZNK15IOConditionLock12getConditionEv
_ifnet_clone_attach
_SHA1Final
_vnode_getparent
__ZN9OSBoolean11withBooleanEb
_page_size
__ZN18IODTPlatformExpert28_RESERVEDIODTPlatformExpert4Ev
__ZN8IOMapper19_RESERVEDIOMapper15Ev
__ZN11IOResourcesC1Ev
__ZNK18_IOServiceNotifier12getMetaClassEv
__ZN13IOEventSourceD2Ev
__ZN22IOInterruptEventSource4freeEv
_bcd2bin_data
__ZN27IOSharedInterruptController16getInterruptTypeEP9IOServiceiPi
__ZN12OSOrderedSet9metaClassE
__ZNK9IOService21getOpenClientIteratorEv
__ZN22_IOOpenServiceIteratorD0Ev
__ZN9OSBoolean10gMetaClassE
__ZN6OSData14ensureCapacityEj
__ZN12IOUserClient22_RESERVEDIOUserClient3Ev
_OSDecrementAtomic8
__ZNK6OSData14getBytesNoCopyEv
__ZN18IOTimerEventSource28_RESERVEDIOTimerEventSource1Ev
_Debugger
_bsd_untimeout
__Z19printDictionaryKeysP12OSDictionaryPc
_IOLockGetMachLock
__ZN8IOPMprotC2EPK11OSMetaClass
_mbuf_stats
__ZN20OSCollectionIterator9MetaClassC1Ev
__ZNK16IOPMinformeeList9MetaClass5allocEv
__ZN8OSSymbol18_RESERVEDOSSymbol1Ev
__ZN14IOMemoryCursor17withSpecificationEPFvNS_15PhysicalSegmentEPvmEmmm
__ZN11OSMetaClass18allocClassWithNameEPK8OSString
_mbuf_prepend
_nanotime
__ZN16IOPlatformExpert12hasPMFeatureEm
__ZN5OSSet7withSetEPKS_j
_IOMappedWrite64
_inet_cksum_simple
__ZN9IOService18changePowerStateToEm
__ZN8OSObjectdlEPvm
_proc_find
__ZN7OSArray9MetaClassC1Ev
_nop_blockmap
__ZN9IOService20powerOverrideOffPrivEv
__ZN8OSObject18_RESERVEDOSObject7Ev
__ZN9IOService20_RESERVEDIOService21Ev
__ZN11IOMemoryMap19setMemoryDescriptorEP18IOMemoryDescriptorj
__ZN13IOCommandGate23_RESERVEDIOCommandGate3Ev
__ZN12IOUserClientC2EPK11OSMetaClass
_ifnet_set_promiscuous
_vnop_fsync_desc
__ZN13IOCommandPool4initEP9IOServiceP10IOWorkLoopm
_inflate
__ZTVN20OSCollectionIterator9MetaClassE
__ZNK18IOMemoryDescriptor12getDirectionEv
_gIODTSizeCellKey
__ZN18IOMemoryDescriptor6setTagEm
__ZN15IORegistryEntry8getPlaneEPKc
__ZN8OSObject18_RESERVEDOSObject1Ev
__ZN17IOSharedDataQueue12withCapacityEm
_convert_port_entry_to_map
__ZN16IOPlatformExpert30createSystemSerialNumberStringEP6OSData
__ZN12OSOrderedSet10gMetaClassE
__ZN14IOPMrootDomain9metaClassE
__ZN18IOMemoryDescriptor12setPurgeableEmPm
_pmc_unregister
_ifnet_lladdr
__ZN8OSObject9metaClassE
__ZNK15IORegistryEntry15copyParentEntryEPK15IORegistryPlane
__ZNK9OSBoolean9isEqualToEPKS_
__ZN11OSMetaClass24serializeClassDictionaryEP12OSDictionary
__ZN9IOService13newUserClientEP4taskPvmP12OSDictionaryPP12IOUserClient
__ZN12IOPMinformee10gMetaClassE
__ZN9IOService15setPMRootDomainEP14IOPMrootDomain
_IOFindValueForName
__ZN21IONaturalMemoryCursor21initWithSpecificationEmmm
__ZN15IORegistryEntry11setPropertyEPKcyj
_spec_select
_logwakeup
__ZNK12OSOrderedSet24getNextObjectForIteratorEPvPP8OSObject
__ZNK18_IOServiceNotifier9MetaClass5allocEv
_microuptime
_buf_strategy
__ZN15IOPMPowerSource24capacityPercentRemainingEv
__ZN15IOConditionLock10superClassE
__ZNK7OSArray9isEqualToEPK15OSMetaClassBase
__ZN17IOPowerConnection25getPreventSystemSleepFlagEv
__ZN11OSSerialize12withCapacityEj
_sysctl_mib_init
__ZN18IOMemoryDescriptor15initWithOptionsEPvmmP4taskmP8IOMapper
_bsd_hostname
_mbuf_setflags_mask
_clock_get_calendar_nanotime
__ZN14IOMemoryCursor10gMetaClassE
__ZN12OSDictionary16initWithCapacityEj
_pmc_reservation_free
__ZN15IOPMPowerSource11adapterInfoEv
__ZN28IOFilterInterruptEventSource24disableInterruptOccurredEPvP9IOServicei
_ifnet_remove_multicast
__ZN15IOConditionLock9metaClassE
__ZN28IOFilterInterruptEventSource38_RESERVEDIOFilterInterruptEventSource5Ev
__ZNK8OSObject9MetaClass5allocEv
__ZN5OSSet9MetaClassC2Ev
__ZN21IOInterruptController31_RESERVEDIOInterruptController5Ev
_vnode_hascleanblks
_m_gethdr
_uuid_compare
_rc4_init
__ZN18IOUserNotification4freeEv
__ZN27IOSharedInterruptController15enableInterruptEP9IOServicei
_vfs_isforce
__ZN9IOService5probeEPS_Pl
__ZN22_IOOpenServiceIteratorC2EPK11OSMetaClass
__ZN13IOEventSource10gMetaClassE
__ZN12IODMACommand22_RESERVEDIODMACommand9Ev
__ZNK18IOUserNotification9MetaClass5allocEv
_pmc_reserve
__ZN8OSNumber10withNumberEyj
__ZN9IOService5startEPS_
__ZN17IOSharedDataQueue27_RESERVEDIOSharedDataQueue6Ev
_proc_pid
__ZN15IORegistryEntry26_RESERVEDIORegistryEntry20Ev
__ZN11IOMemoryMapC2Ev
__ZN9IODTNVRAM23writeNVRAMPropertyType1EP15IORegistryEntryPK8OSSymbolP6OSData
__ZN10IOWorkLoop15runEventSourcesEv
__ZN14IOPMrootDomain16tellNoChangeDownEm
__ZN8IOMapper10allocTableEm
_mac_policy_register
__ZNK22IOInterruptEventSource14getAutoDisableEv
__ZN11IOCatalogue9MetaClassC1Ev
__ZNK12OSDictionary12getMetaClassEv
_hashinit
_vnop_symlink_desc
_fifo_advlock
_sbuf_data
_mbuf_len
__ZN15IORegistryEntry26_RESERVEDIORegistryEntry16Ev
__ZN8IOMapper7gSystemE
__ZN12OSCollection22_RESERVEDOSCollection3Ev
__ZN18IOMemoryDescriptor29_RESERVEDIOMemoryDescriptor10Ev
__ZN9IOService15tellChangeDown2Em
__ZTVN10OSIterator9MetaClassE
_sysctl__machdep_children
__ZN13IOCommandGate23_RESERVEDIOCommandGate2Ev
__ZNK7OSArray11getCapacityEv
_vnode_vfsmaxsymlen
__ZNK15IORegistryEntry11getPropertyEPK8OSSymbolPK15IORegistryPlanem
__ZN8OSString19_RESERVEDOSString15Ev
__ZN11IOCatalogue10superClassE
__ZN20OSCollectionIteratorC2Ev
__ZN11IODataQueue4freeEv
_gIOLocationMatchKey
_OSMalloc
__ZN18IOMemoryDescriptorC2EPK11OSMetaClass
__ZN17IOPowerConnection10superClassE
__ZN8OSString15initWithCStringEPKc
__ZN10OSIterator10superClassE
__ZN16IOPMinformeeList9addToListEP12IOPMinformee
__ZN29IOInterleavedMemoryDescriptorC1Ev
__ZTVN11IODataQueue9MetaClassE
_buf_setblkno
_kmputc
_sflt_detach
__ZTVN17IOBigMemoryCursor9MetaClassE
__ZN12OSDictionary22_RESERVEDOSDictionary5Ev
__ZN24IOCPUInterruptController14causeInterruptEP9IOServicei
__ZN21IOInterruptController17registerInterruptEP9IOServiceiPvPFvS2_S2_S2_iES2_
_lck_attr_setdebug
__ZN11IOMemoryMap7getSizeEv
__ZN11IOMemoryMap9getLengthEv
_strcmp
__ZNK12OSOrderedSet14containsObjectEPK15OSMetaClassBase
_memmove
__ZNK11OSSerialize20getCapacityIncrementEv
_vnop_readdir_desc
_ifnet_get_multicast_list
__ZN15IORegistryEntry13childFromPathEPKcPK15IORegistryPlanePcPi
__ZN9IOService6PMinitEv
__ZN8IOMapperD0Ev
_vfs_issynchronous
__ZN8OSSymbol11withCStringEPKc
__Znam
_kOSBooleanFalse
__ZN6OSData11appendBytesEPKS_
_vnop_strategy_desc
__ZN23IOMultiMemoryDescriptor15withDescriptorsEPP18IOMemoryDescriptorm11IODirectionb
_OSKextReleaseKextWithLoadTag
_vnop_removexattr_desc
_OSUnserializelval
_strlen
__ZN10OSIteratorC2EPK11OSMetaClass
__ZN12OSDictionary10setOptionsEjjPv
__ZN17IONVRAMController10gMetaClassE
__ZN11IOMemoryMap14getAddressTaskEv
__ZTVN13_IOServiceJob9MetaClassE
_hz
__ZN13IOEventSource4initEP8OSObjectPFvS1_zE
__ZN12IOUserClient17sendAsyncResult64EPyiS0_m
__ZN15IOWatchDogTimer9MetaClassC1Ev
__ZN11OSMetaClass21_RESERVEDOSMetaClass4Ev
_hfs_remconverter
_ipf_addv6
_sock_isnonblocking
__ZN5OSSet9withArrayEPK7OSArrayj
_mbuf_pullup
_mbuf_next
__ZN16IODMAEventSource9metaClassE
_vfs_clearflags
__ZN21IOSubMemoryDescriptorC2Ev
_mach_memory_entry_page_op
__ZN11OSSerializeC1EPK11OSMetaClass
_pmc_create_config
__ZN16IODMAEventSource9MetaClassC2Ev
__ZN8OSObject19_RESERVEDOSObject10Ev
__ZN28IOFilterInterruptEventSourceC2Ev
_debug_iomalloc_size
_vn_revoke
_mbuf_get_priority
_upl_valid_page
_mbuf_get_csum_requested
_gIODTNameKey
__ZN17IOPolledInterfaceC2EPK11OSMetaClass
__ZN16IOKitDiagnostics11diagnosticsEv
__ZN17IOPowerConnection22childHasRequestedPowerEv
__ZN15IORegistryEntryD2Ev
__ZN17IOPowerConnectionD0Ev
__ZN15IOConditionLockC2EPK11OSMetaClass
__ZNK5OSSet12getMetaClassEv
_strnlen
__ZN11IOMemoryMap18getPhysicalAddressEv
__ZN24IOCPUInterruptControllerD0Ev
__ZN11IODataQueueC2EPK11OSMetaClass
__ZN8IOMapper19waitForSystemMapperEv
_vnode_putname
__ZN25IOGeneralMemoryDescriptor8completeE11IODirection
_nulldev
__ZN9IOService24powerStateForDomainStateEm
_gPlatformInterruptControllerName
__ZN10IONotifierC2EPK11OSMetaClass
__ZN24IOCPUInterruptController16disableInterruptEP9IOServicei
__ZN9IOService20_RESERVEDIOService45Ev
__ZN11OSSerialize21_RESERVEDOSSerialize0Ev
__ZN18IOMemoryDescriptor11withOptionsEPvmmP4taskmP8IOMapper
__ZN7OSArrayD0Ev
__ZN12OSDictionaryC2EPK11OSMetaClass
__ZNK12OSDictionary24getNextObjectForIteratorEPvPP8OSObject
__ZN12IODMACommand11OutputBig32EPS_NS_9Segment64EPvm
__ZNK9OSBoolean9MetaClass5allocEv
_ubc_range_op
__ZN16IOPlatformExpert9configureEP9IOService
__ZN7OSArray12withCapacityEj
_futimes
__ZN23IOMultiMemoryDescriptor19initWithDescriptorsEPP18IOMemoryDescriptorm11IODirectionb
__ZN25IOGeneralMemoryDescriptor16getSourceSegmentEmPm
_gPESerialBaud
__ZNK18IOUserNotification12getMetaClassEv
__ZNK15IOPMPowerSource9MetaClass5allocEv
_sock_connect
_mbuf_get_mhlen
__ZN5IOCPU15_RESERVEDIOCPU5Ev
__ZN17IOPolledInterface28_RESERVEDIOPolledInterface14Ev
_termioschars
__ZN25IOGeneralMemoryDescriptorC2Ev
_OSlibkernInit
__ZNK10IOWorkLoop20disableAllInterruptsEv
__ZN18_IOServiceNotifier7disableEv
__ZN7OSArray16initWithCapacityEj
_vm_map_deallocate
__ZN8OSString11withCStringEPKc
__ZNK18IORegistryIterator12getMetaClassEv
_buf_lblkno
__ZNK9IOService19getProviderIteratorEv
__ZN25IOGeneralMemoryDescriptor17getVirtualSegmentEmPm
__ZN18IOTimerEventSource10gMetaClassE
_proc_selfpgrpid
__ZN11IOCatalogue9metaClassE
__ZN10IOWorkLoopD2Ev
___stack_chk_fail
_unregister_decmpfs_decompressor
_uuid_generate_time
_ttymalloc
__ZNK9IOCommand9MetaClass5allocEv
_IOMallocContiguous
__ZNK11IOCatalogue18getGenerationCountEv
__ZN11IOMemoryMap9MetaClassC1Ev
__ZN18IOTimerEventSource10setTimeoutE13mach_timespec
_ifaddr_dstaddress
__ZN12OSSerializerD2Ev
__ZN15IOPMPowerSourceC2Ev
_ifnet_free_multicast_list
__ZNK7OSArray8getCountEv
__ZN16IODMAEventSource4initEP8OSObjectP9IOServicePFvS1_PS_P12IODMACommandimES8_m
_nop_access
__ZNK20IOLittleMemoryCursor9MetaClass5allocEv
_ml_phys_read
_vnode_isvroot
_err_getattr
__ZN9IOService15publishResourceEPK8OSSymbolP8OSObject
__ZN15IOPMPowerSource10superClassE
__ZTVN21IOInterruptController9MetaClassE
__ZNK8OSObject13taggedReleaseEPKvi
_mach_vm_pressure_monitor
__ZNK16IOKitDiagnostics9MetaClass5allocEv
__ZTVN9OSBoolean9MetaClassE
_strtoul
_get_task_map
_arp_ip_handle_input
__ZN12IOUserClient22_RESERVEDIOUserClient8Ev
__ZTV16IOPlatformExpert
_buf_setfsprivate
_kOSBooleanTrue
__ZN20RootDomainUserClient9metaClassE
__ZTV20OSCollectionIterator
_rootdev
__ZN21IOInterruptController19unregisterInterruptEP9IOServicei
__ZN9IOService21powerStateDidChangeToEmmPS_
_is_suser
_kauth_cred_ntsid2uid
__ZN13IOCommandPool18gatedReturnCommandEP9IOCommand
_fuiword
__ZNK9IOService10isInactiveEv
__ZNK15IORegistryEntry11getPropertyEPK8OSSymbol
_rc4_crypt
__ZN27IOSharedInterruptController15handleInterruptEPvP9IOServicei
__ZN13IOEventSource7setNextEPS_
__ZN12IOUserClient10clientDiedEv
__ZN12OSSerializerC1EPK11OSMetaClass
__ZN12OSDictionary15flushCollectionEv
__ZN13IOEventSource23_RESERVEDIOEventSource4Ev
__ZN13IOCommandPool23_RESERVEDIOCommandPool2Ev
__ZN13IOCommandPool15gatedGetCommandEPP9IOCommandb
__ZN18IOTimerEventSource9MetaClassC2Ev
__ZN7OSArray4freeEv
__ZN9IOService19start_PM_idle_timerEv
_unicode_combinable
_ev_try_lock
__ZN17IONVRAMController9metaClassE
_mach_vm_region
__ZN29IOInterleavedMemoryDescriptor9metaClassE
_buf_alloc
_task_get_special_port
_ifaddr_netmask
__ZN9IOService20_RESERVEDIOService24Ev
_version_prerelease_level
__ZN25IOGeneralMemoryDescriptor15initWithAddressEjm11IODirectionP4task
__ZN11IODataQueue19getMemoryDescriptorEv
__ZN29IOInterleavedMemoryDescriptor8completeE11IODirection
_enoioctl
_OSBitAndAtomic8
__ZN19IOPMPowerSourceListD0Ev
__ZN10IOWorkLoop9sleepGateEPvm
_sock_close
__ZN22IOInterruptEventSource20interruptEventSourceEP8OSObjectPFvS1_PS_iEP9IOServicei
__ZN22_IOOpenServiceIterator10gMetaClassE
__ZNK9IODTNVRAM17getOFVariablePermEPK8OSSymbol
_mbuf_get
_buf_bawrite
__ZN12OSCollection22_RESERVEDOSCollection6Ev
__ZN17IOPowerConnection10gMetaClassE
_vnop_mnomap_desc
_ifnet_detach
_selwait
__ZN16IOPlatformExpertC1Ev
__ZN9IOService20_RESERVEDIOService43Ev
_utf8_normalizestr
_IORecursiveLockAlloc
__ZNK14IOMemoryCursor9MetaClass5allocEv
__ZTVN8OSObject9MetaClassE
_pru_sopoll_notsupp
__ZN17IOPolledInterface27_RESERVEDIOPolledInterface7Ev
_fifo_write
__ZNK15IORegistryEntry13getChildEntryEPK15IORegistryPlane
__ZN18IOMemoryDescriptor10initializeEv
__ZN19IOPMPowerSourceListC2EPK11OSMetaClass
__ZN12IOUserClient17setAsyncReferenceEPjP8ipc_portPvS3_
__ZN17IOPolledInterface28_RESERVEDIOPolledInterface15Ev
__ZN21IOInterruptController17disableVectorHardElP17IOInterruptVector
__ZN6OSData16_RESERVEDOSData2Ev
__ZTV18IODTPlatformExpert
_proto_register_plumber
__Z22IODTResolveAddressCellP15IORegistryEntryPmS1_S1_
__ZN14IOPMrootDomain15powerChangeDoneEm
_buf_flushdirtyblks
_gIOPublishNotification
_IOKitBSDInit
__ZNK6OSData9isEqualToEPKS_
_upl_page_present
_gOSObjectTrackList
__ZN16IORangeAllocator16getFragmentCountEv
_vetoSleepWakeNotification
__ZN13IOEventSource9MetaClassC2Ev
_sysctl_string
__ZN24IOBufferMemoryDescriptorC2Ev
__ZN10IONotifierD0Ev
__ZN10IOMachPort4freeEv
_nop_select
__ZN11OSMetaClass10preModLoadEPKc
__ZN9IOService17catalogNewDriversEP12OSOrderedSet
__ZN9OSBoolean10superClassE
__ZN12IODMACommand9readBytesEyPvy
__ZNK9OSBoolean12taggedRetainEPKv
__ZN13IOCommandGate9MetaClassC2Ev
__ZN22IOInterruptEventSourceC1Ev
__ZTV8OSSymbol
__ZNK15IORegistryEntry16getPathComponentEPcPiPK15IORegistryPlane
__ZN9IODTNVRAM19searchNVRAMPropertyEP17IONVRAMDescriptorPm
__ZTV22IOInterruptEventSource
__ZN10IOMachPort20releasePortForObjectEP8OSObjectj
_ifaddr_release
_sysctl__children
__ZN10IONotifier9metaClassE
__ZN16IOKitDiagnostics9MetaClassC1Ev
__ZN19IOPMPowerSourceList10initializeEv
__ZNK15IOWatchDogTimer9MetaClass5allocEv
__ZN8OSString18_RESERVEDOSString9Ev
__ZN9IOService18actionDidTerminateEPS_m
_ml_phys_write
__ZN24IOCPUInterruptController34_RESERVEDIOCPUInterruptController0Ev
__ZN17IONVRAMControllerD2Ev
__ZN12IOUserClient31getAsyncTargetAndMethodForIndexEPP9IOServicem
__ZN12OSOrderedSetC1Ev
_kev_vendor_code_find
_vnop_pathconf_desc
__ZN15OSMetaClassBase12safeMetaCastEPKS_PK11OSMetaClass
__ZN9IOService15comparePropertyEP12OSDictionaryPKc
__ZNK8OSObject13taggedReleaseEPKv
_mem_size
__ZN14IOPMrootDomain23requestPowerDomainStateEmP17IOPowerConnectionm
__ZN19IOPMPowerSourceList9MetaClassC1Ev
__ZN8IOSyncer13privateSignalEv
_mbuf_outbound_finalize
_OSAddAtomic8
__ZN21IOInterruptController13getVectorTypeElP17IOInterruptVector
__ZNK15IORegistryEntry14applyToParentsEPFvPS_PvES1_PK15IORegistryPlane
__ZN12OSSymbolPoolD1Ev
__ZN16IODMAEventSourceC2Ev
__ZN11OSMetaClass8logErrorEi
__ZN23IOMultiMemoryDescriptorD2Ev
__ZN25IOGeneralMemoryDescriptor9MetaClassC2Ev
_sock_settclassopt
__ZN15IORegistryEntry26_RESERVEDIORegistryEntry30Ev
__ZN16IOKitDiagnosticsC1EPK11OSMetaClass
_mach_gss_accept_sec_context
_buf_map
__ZN18IOMemoryDescriptor18withPhysicalRangesEP15IOPhysicalRangem11IODirectionb
_ifnet_idle_flags
__ZN22IOInterruptEventSource32_RESERVEDIOInterruptEventSource6Ev
__ZNK8OSString7getCharEj
_sysctl_register_fixed
__ZN8IOMapper19_RESERVEDIOMapper13Ev
__ZN12OSDictionary5mergeEPKS_
_nop_readlink
__ZN9OSBooleanC1Ev
_mbuf_allocpacket
_conslog_putc
__ZN9IOService20_RESERVEDIOService38Ev
__ZN12IODMACommand22_RESERVEDIODMACommand3Ev
__ZN18IODTPlatformExpert18readNVRAMPartitionEPK8OSSymbolmPhm
_buf_setresid
_kauth_cred_get_with_ref
__ZN18IOMemoryDescriptor3mapEm
_kauth_getgid
__ZNK6OSData9getLengthEv
__ZN10IOMachPort9metaClassE
__ZN12OSOrderedSet22_RESERVEDOSOrderedSet3Ev
__ZN16IOPMinformeeListD0Ev
_pru_connect2_notsupp
__ZTVN8OSString9MetaClassE
__ZTVN6OSData9MetaClassE
__ZN9OSBoolean19_RESERVEDOSBoolean3Ev
_vnop_mkdir_desc
__ZNK12OSOrderedSet9getObjectEj
__ZN8OSString19_RESERVEDOSString14Ev
__ZN18IODTPlatformExpert10superClassE
_ifaddr_withaddr
__ZN21IOInterruptController12enableVectorElP17IOInterruptVector
__ZN6OSData16_RESERVEDOSData7Ev
_ipf_addv4
__ZN9IOServiceD0Ev
__ZN16IOPlatformExpert13savePanicInfoEPhm
__ZN10IONotifier9MetaClassC1Ev
_aes_decrypt_key128
_vfs_flags
__ZN18IORegistryIterator9exitEntryEv
__Z23IODTFindMatchingEntriesP15IORegistryEntrymPKc
__ZNK11OSSerialize11getCapacityEv
__ZN18IORegistryIterator9MetaClassC2Ev
_PE_cpu_signal
__ZNK7OSArray9getObjectEj
_ubc_upl_commit_range
_gIODTAAPLInterruptsKey
__ZN20RootDomainUserClientC2EPK11OSMetaClass
__ZN15IOConditionLockC1EPK11OSMetaClass
__ZTV21IONaturalMemoryCursor
__ZNK11IOCatalogue9MetaClass5allocEv
__ZN12IOUserClient17mapClientMemory64EmP4taskmj
_vfs_iterate
__ZTV18IORegistryIterator
_mbuf_get_traffic_class
_vfs_authopaqueaccess
_kern_os_realloc
_PESetGMTTimeOfDay
__ZN17IOPolledInterface28_RESERVEDIOPolledInterface13Ev
_physio
_vm_map_unwire
__ZN11IOMemoryMap21_RESERVEDIOMemoryMap6Ev
__ZN17IOSharedDataQueue9metaClassE
__ZN15IORegistryEntry18getGenerationCountEv
_mountroot_post_hook
__ZN5OSSet15_RESERVEDOSSet2Ev
__ZN18IODTPlatformExpert10gMetaClassE
__ZN9IODTNVRAM23writeNVRAMPropertyType0EP15IORegistryEntryPK8OSSymbolP6OSData
_OSMalloc_Tagfree
__ZN9IOService4stopEPS_
_ubc_getcred
__ZN5OSSet15flushCollectionEv
__ZN11OSMetaClass18getClassDictionaryEv
__ZNK12OSDictionary12initIteratorEPv
__ZN9IOService15setDeviceMemoryEP7OSArray
__ZNK15IORegistryEntry8makeLinkEPS_jPK15IORegistryPlane
__ZN14IOPMrootDomain9MetaClassC2Ev
_err_rmdir
__ZN9IOService24mapDeviceMemoryWithIndexEjm
__ZN9OSBooleanD0Ev
_cache_enter
__ZNK26_IOServiceInterestNotifier9MetaClass5allocEv
__ZN9IOService16getInterruptTypeEiPi
__ZNK13IOEventSource12getMetaClassEv
_VNOP_WRITE
__ZN9IOCommand9MetaClassC2Ev
__ZN17IOPolledInterface27_RESERVEDIOPolledInterface8Ev
__ZTVN12IOPMinformee9MetaClassE
__ZN10OSIteratorC1EPK11OSMetaClass
__ZTV29IOInterleavedMemoryDescriptor
__ZNK15IORegistryEntry7getPathEPcPiPK15IORegistryPlane
_vfs_event_init
__ZNK11IOResources12getMetaClassEv
__ZN12IODMACommandC2Ev
__ZN8OSStringC1EPK11OSMetaClass
_aes_decrypt_cbc
__ZN16IORangeAllocator4initEmmmm
__ZN14IOMemoryCursorC1Ev
_devfs_remove
__ZN5IOCPUD2Ev
__ZN5IOCPU15getCPUGroupSizeEv
_vnode_clearnoreadahead
__ZTV17IOSharedDataQueue
_buf_fua
_vm_map
__ZN13IOCommandGate13commandWakeupEPvb
__ZNK12IOUserClient9MetaClass5allocEv
_subyte
__ZN12OSOrderedSet15flushCollectionEv
__ZN24IOBufferMemoryDescriptor34_RESERVEDIOBufferMemoryDescriptor4Ev
__ZN20RootDomainUserClient10superClassE
_gIOInterruptSpecifiersKey
__ZN19IOPMPowerSourceList14removeFromListEP15IOPMPowerSource
__ZN9IOService20_RESERVEDIOService31Ev
_strcasecmp
__ZN12IODMACommand10superClassE
_vnode_setnoreadahead
__ZN9IOService18matchPropertyTableEP12OSDictionary
_lck_grp_attr_free
__Z21IODTResolveAddressingP15IORegistryEntryPKcP14IODeviceMemory
_IOFlushProcessorCache
__ZN8IOMapper18_RESERVEDIOMapper4Ev
_lck_attr_free
__ZN9OSBoolean9MetaClassC1Ev
__ZNK15IORegistryPlane9serializeEP11OSSerialize
__ZN18IORegistryIterator13getNextObjectEv
_ifnet_attach_protocol
__ZNK15IORegistryEntry16getChildIteratorEPK15IORegistryPlane
__ZN20OSCollectionIteratorC1EPK11OSMetaClass
__ZN15IORegistryEntry14removePropertyEPK8OSString
__ZN9OSBoolean19_RESERVEDOSBoolean0Ev
__ZN12OSOrderedSet22_RESERVEDOSOrderedSet5Ev
__ZN8IOSyncer10superClassE
_nop_readdirattr
__ZN11IOCatalogueD0Ev
__ZN15IOPMPowerSource9setSerialEP8OSSymbol
_spllo
_proc_selfppid
__ZN18IOTimerEventSource28_RESERVEDIOTimerEventSource5Ev
__ZNK11IOCatalogue12unloadModuleEP8OSString
_throttle_info_mount_ref
_nop_pathconf
__ZN9IOService20_RESERVEDIOService25Ev
_vfs_context_proc
_throttle_info_mount_rel
_mbuf_pkthdr_rcvif
__ZN24IOCPUInterruptController34_RESERVEDIOCPUInterruptController1Ev
__ZN10IOWorkLoop8workLoopEv
_ip_mutex
__ZN24IOBufferMemoryDescriptor22inTaskWithPhysicalMaskEP4taskmjj
__ZNK10IOWorkLoop21enableAllEventSourcesEv
__ZN9IOService24PM_idle_timer_expirationEv
_mach_msg_send_from_kernel_proper
__ZN18IOTimerEventSource11setWorkLoopEP10IOWorkLoop
__ZTV11IOResources
__ZN16IORangeAllocatorD0Ev
__ZN8OSObject18_RESERVEDOSObject3Ev
_vnode_addfsref
__ZN9IODTNVRAM19convertObjectToPropEPhPmPK8OSSymbolP8OSObject
__ZN9IOCommandC1EPK11OSMetaClass
__ZN24IOCPUInterruptControllerD1Ev
__ZN8IOMapper17setMapperRequiredEb
_kauth_cred_proc_ref
_buf_setcpaddr
_inaddr_local
__ZN17IOSharedDataQueue27_RESERVEDIOSharedDataQueue2Ev
_IOSleep
__ZNK17IOSharedDataQueue12getMetaClassEv
__ZN12IOUserClient23getExternalTrapForIndexEm
_kauth_cred_find
__ZN18IOMemoryDescriptor16getPreparationIDEv
__ZN8OSNumber9MetaClassC2Ev
__ZTVN18IORegistryIterator9MetaClassE
__ZN9IOService13messageClientEmP8OSObjectPvj
__ZN9IOService15tellChangeDown1Em
__ZN15IOPMPowerSource14setMaxCapacityEj
__ZN16IOPlatformExpert14getChipSetTypeEv
_ip_protox
__ZN12IOPMinformeeC1Ev
__ZTV28IOFilterInterruptEventSource
__ZTV8IOPMprot
_vfs_isupdate
__ZN8IOMapper10gMetaClassE
__ZN15IOPMPowerSourceC1EPK11OSMetaClass
_mac_policy_unregister
__ZN13IOCommandGate14attemptCommandEPvS0_S0_S0_
_nop_blktooff
_vnode_update_identity
__ZN25IOGeneralMemoryDescriptor11setPositionEm
__ZN12IOUserClient23_RESERVEDIOUserClient14Ev
__Z16OSUnserializeXMLPKcPP8OSString
__ZN21IOInterruptController26getInterruptHandlerAddressEv
__ZN18IODTPlatformExpertC2EPK11OSMetaClass
_spec_open
__ZN8OSSymbolC1Ev
__ZNK11OSMetaClass13getSuperClassEv
__ZN18IOTimerEventSource28_RESERVEDIOTimerEventSource3Ev
__ZN9IOService20_RESERVEDIOService18Ev
__ZN12IOUserClient9metaClassE
_spec_fsync
__ZN12OSOrderedSet10setOptionsEjjPv
__ZN8OSObject18_RESERVEDOSObject8Ev
_di_root_image
__ZN17IOSharedDataQueueD2Ev
__ZN9IOService20_RESERVEDIOService15Ev
_vnode_close
_OSMalloc_Tagalloc
__ZN5OSSetC1EPK11OSMetaClass
__ZN12IOUserClient22_RESERVEDIOUserClient6Ev
_pffinddomain
__ZNK12OSOrderedSet20getCapacityIncrementEv
__ZN12OSDictionary4freeEv
__ZN8IOMapper19_RESERVEDIOMapper11Ev
__ZN8OSNumberD0Ev
__ZN28IOFilterInterruptEventSource38_RESERVEDIOFilterInterruptEventSource1Ev
__ZN11OSSerialize20previouslySerializedEPK15OSMetaClassBase
__ZN8OSString19_RESERVEDOSString11Ev
__ZN15IOWatchDogTimer4stopEP9IOService
_ifnet_set_metric
__ZNK15IORegistryEntry15applyToChildrenEPFvPS_PvES1_PK15IORegistryPlane
__ZN21IONaturalMemoryCursorD2Ev
_splbio
_ifmaddr_release
__ZN15IORegistryPlaneD0Ev
_nanouptime
__ZN18IOUserNotificationC2EPK11OSMetaClass
__ZN21IOInterruptController31_RESERVEDIOInterruptController1Ev
__ZN12OSCollection14copyCollectionEP12OSDictionary
__ZN18IOMemoryDescriptor17withAddressRangesEP14IOAddressRangemmP4task
__ZNK15OSMetaClassBase8metaCastEPK11OSMetaClass
__ZN9IOService14checkResourcesEv
__ZN16IODMAEventSource10gMetaClassE
_m_mtod
_task_deallocate
__ZN20RootDomainUserClient9MetaClassC2Ev
_buf_geteblk
__ZN26_IOServiceInterestNotifier10gMetaClassE
__ZN15IOConditionLockC2Ev
_proc_selfname
__ZN16IODMAEventSourceC2EPK11OSMetaClass
__ZTVN8IOPMprot9MetaClassE
_gIOFirstPublishNotification
__ZTVN22IOInterruptEventSource9MetaClassE
_sock_gettype
_IOBSDNameMatching
__ZN12IOPMinformee9metaClassE
__ZN8OSNumber18_RESERVEDOSNumber0Ev
__ZN15IORegistryEntry26_RESERVEDIORegistryEntry24Ev
_kalloc
_fifo_select
_vfs_context_current
__ZN17IOSharedDataQueueC2EPK11OSMetaClass
__ZN14IODeviceMemory9withRangeEmm
__ZN18IODTPlatformExpert28_RESERVEDIODTPlatformExpert2Ev
_spec_ebadf
_vnode_recycle
__ZN13IOCommandGate23_RESERVEDIOCommandGate6Ev
__ZN11OSMetaClass21checkMetaCastWithNameEPK8OSStringPK15OSMetaClassBase
__ZN16IOPlatformExpert11haltRestartEj
_selwakeup
__ZN9IOService12passiveMatchEP12OSDictionaryb
__ZN12IOUserClient10initializeEv
_clock_get_system_nanotime
_kev_post_msg
_vnop_read_desc
__ZN21IOInterruptControllerD0Ev
__ZNK8OSSymbol9isEqualToEPKS_
_vfs_statfs
__ZN12OSOrderedSet12withCapacityEjPFlPK15OSMetaClassBaseS2_PvES3_
_vfs_maxsymlen
__ZN18IODTPlatformExpert11haltRestartEj
__ZN9IOService15registerServiceEm
__ZN15IORegistryEntry26_RESERVEDIORegistryEntry12Ev
__ZN9IOService10joinPMtreeEPS_
_PE_cpu_machine_init
_vfs_context_create
__ZN18IORegistryIterator10gMetaClassE
_ubc_offtoblk
_buf_bwrite
__ZN10IOMachPort9MetaClassC1Ev
__ZN12IODMACommand22_RESERVEDIODMACommand6Ev
_vn_path_package_check
__ZN29IOInterleavedMemoryDescriptor9MetaClassC1Ev
__ZN23IOMultiMemoryDescriptor18getPhysicalSegmentEmPmm
__ZN6OSData18setDeallocFunctionEPFvPvjE
__ZN14IOPMrootDomainC2Ev
__ZN15OSMetaClassBase13checkTypeInstEPKS_S1_
_fifo_read
__ZN12IOUserClient4initEv
__ZN5OSSetD0Ev
_sbuf_printf
__ZN10IOMachPortC1Ev
_thread_reference
_pmc_reserve_task
__ZN13IOEventSourceD0Ev
__ZN15IOPMPowerSource11atWarnLevelEv
_vn_bwrite
__ZN6OSData9MetaClassC1Ev
__ZNK25IOGeneralMemoryDescriptor9MetaClass5allocEv
__ZN24IOCPUInterruptController34_RESERVEDIOCPUInterruptController5Ev
__ZN12IORootParent10superClassE
__ZNK24IOBufferMemoryDescriptor12getMetaClassEv
__ZN13_IOServiceJob8startJobEP9IOServiceim
__ZN12IORootParentD0Ev
_pmc_free_config
__ZN20IOLittleMemoryCursorD0Ev
__ZN12IORootParent5startEP9IOService
__ZN12IOUserClient13connectClientEPS_
_mac_vnop_removexattr
__ZN21IONaturalMemoryCursor10gMetaClassE
_err_mknod
__ZN15IOPMPowerSource11powerSourceEv
__ZNK15IORegistryEntry14copyChildEntryEPK15IORegistryPlane
__ZN18IODTPlatformExpertC1EPK11OSMetaClass
_kauth_filesec_alloc
__ZN20IOLittleMemoryCursor13outputSegmentEN14IOMemoryCursor15PhysicalSegmentEPvm
__ZN15IOWatchDogTimerC2EPK11OSMetaClass
__ZN12IOUserClient24registerNotificationPortEP8ipc_portmm
__ZTV23IOMultiMemoryDescriptor
__ZN8IOSyncerC2Ev
__ZN25IOGeneralMemoryDescriptor15unmapFromKernelEv
_IOMapperInsertPPNPages
__ZN8OSSymbol9MetaClassC2Ev
__ZN28IOFilterInterruptEventSourceD0Ev
_IOMapperIOVMFree
__ZN16IOPlatformDevice26_RESERVEDIOPlatformDevice3Ev
_IODelay
__ZN15IORegistryEntry26_RESERVEDIORegistryEntry19Ev
_vnode_open
_deflate
_vfs_setauthcache_ttl
_bzero_phys
__ZN14IOPMrootDomain13askChangeDownEm
__ZN16IOPlatformExpert14getMachineNameEPci
__ZN18IOMemoryDescriptor9MetaClassC2Ev
__ZN8OSStringC2Ev
_gIODTModelKey
__ZN18IOMemoryDescriptorD0Ev
__MALLOC_ZONE
_OSUnserializechar
_ctl_deregister
__ZN12OSOrderedSet9MetaClassC1Ev
_vfs_update_vfsstat
_current_task
__ZN7OSArray5mergeEPKS_
__ZN15OSMetaClassBase25_RESERVEDOSMetaClassBase6Ev
_kauth_cred_label_update
__ZTVN19IOPMPowerSourceList9MetaClassE
_vsprintf
__ZN9IOService20_RESERVEDIOService26Ev
_buf_setdirtyoff
__ZNK8OSSymbol12getMetaClassEv
__ZN7OSArray17_RESERVEDOSArray5Ev
__ZN13IOCommandPool4freeEv
__ZNK15IORegistryEntry11getLocationEPK15IORegistryPlane
__ZN15IOPMPowerSourceD0Ev
_mbuf_data
__ZN18IODTPlatformExpert9createNubEP15IORegistryEntry
__ZN12IORootParentC2EPK11OSMetaClass
__ZTV15IODMAController
__ZN8OSSymbol18_RESERVEDOSSymbol0Ev
_sysctl__vfs_children
__ZN9IOService22PM_Clamp_Timer_ExpiredEv
__ZN8IOSyncer9metaClassE
_vnop_copyfile_desc
__ZN14IOPMrootDomain9constructEv
__ZN9IOService10superClassE
__giDebugLogDataInternal
__ZN5OSSet12withCapacityEj
__ZN14IOPMrootDomain14publishFeatureEPKc
__ZNK8OSString9isEqualToEPKc
_kauth_guid_equal
__ZNK15IORegistryEntry9breakLinkEPS_jPK15IORegistryPlane
__ZN10IOWorkLoop20_RESERVEDIOWorkLoop6Ev
_buf_blkno
__ZN20IOLittleMemoryCursor10gMetaClassE
__ZN13IOCommandPool9MetaClassC2Ev
_vnop_remove_desc
__ZN11IOResources13setPropertiesEP8OSObject
_populate_model_name
_nop_ioctl
__ZN19IOPMPowerSourceListC1EPK11OSMetaClass
_vnop_access_desc
__ZN9IOService6attachEPS_
_splhigh
__ZN20RootDomainUserClientC1Ev
__ZN15OSMetaClassBaseC1Ev
__ZN8OSObject19_RESERVEDOSObject15Ev
__ZN23IOMultiMemoryDescriptor9MetaClassC2Ev
__ZN9IOService12clampPowerOnEm
__ZTVN15IORegistryEntry9MetaClassE
__ZNK12OSCollection9MetaClass5allocEv
__ZN27IOSharedInterruptControllerC2Ev
__ZN6OSData10superClassE
_unicode_decomposeable
_IOMapperIOVMAlloc
__ZN9IOService20unlockForArbitrationEv
_mbuf_freem
_lck_rw_lock_shared_to_exclusive
_ifnet_set_hdrlen
__ZTV16IOPMinformeeList
_mig_user_deallocate
__ZNK6OSData20getCapacityIncrementEv
_get_aiotask
__ZNK8OSNumber17unsigned8BitValueEv
_vnop_link_desc
__ZN11IOCatalogue10gMetaClassE
__ZN20OSCollectionIteratorC2EPK11OSMetaClass
_PEGetPlatformEpoch
__ZN16IORangeAllocatorC1Ev
__ZN16IOPlatformExpertD2Ev
__ZN9IOService15terminateWorkerEm
__ZN15IODMAController21registerDMAControllerEm
_gIOUserClientClassKey
__ZN18IOMemoryDescriptor9metaClassE
_bdevsw_remove
__ZN19IOPMPowerSourceListD2Ev
__ZN18_IOServiceNotifierC1Ev
__ZN15IOPMPowerSource12updateStatusEv
__ZN11OSSerialize21_RESERVEDOSSerialize5Ev
__ZNK11IODataQueue12getMetaClassEv
__ZN18IODTPlatformExpert9configureEP9IOService
__ZN18IORegistryIteratorC2Ev
_absolutetime_to_nanoseconds
_IOMappedRead32
_vnop_setxattr_desc
_OSBitAndAtomic
__ZN11OSSerialize14addXMLStartTagEPK15OSMetaClassBasePKc
__ZTVN29IOInterleavedMemoryDescriptor9MetaClassE
__ZNK12OSOrderedSet14getFirstObjectEv
__ZNK22IOInterruptEventSource12getMetaClassEv
__ZN8OSNumber10withNumberEPKcj
__ZN9IOService24registerInterestedDriverEPS_
__ZN9IOService10initializeEv
_perf_monitor_unregister
__ZNK9IOService6isOpenEPKS_
__ZN11OSMetaClassD2Ev
_kmem_alloc
_version
__ZN12OSCollection11haveUpdatedEv
__ZN6OSData12initWithDataEPKS_jj
_strncpy
_vfs_sysctl
_nop_readdir
__ZN15IORegistryEntry26_RESERVEDIORegistryEntry22Ev
_err_exchange
__ZTVN8OSNumber9MetaClassE
__ZN8OSObjectC1EPK11OSMetaClass
__ZN21IOInterruptController9metaClassE
__ZN16IOPlatformExpert27_RESERVEDIOPlatformExpert11Ev
__ZN18IOMemoryDescriptor10setMappingEP4taskjm
_err_open
_mbuf_setdata
_vnop_setattr_desc
_vnop_create_desc
_lck_spin_try_lock
_kauth_getruid
_sysctl_unregister_set
__ZN15IOPMPowerSource12manufacturerEv
__ZN21IOSubMemoryDescriptor8completeE11IODirection
_gIODTUnitKey
__ZN7OSArray9setObjectEjPK15OSMetaClassBase
__ZNK11OSMetaClass12taggedRetainEPKv
__ZN9IOService12nameMatchingEPK8OSStringP12OSDictionary
__ZN25IOGeneralMemoryDescriptor4freeEv
__ZN15IODMAController10superClassE
__ZN9IOService16ack_timer_tickedEv
__ZN9IOService14getServiceRootEv
__ZN12IOUserClient24getNotificationSemaphoreEmPP9semaphore
_mbuf_mclget
__ZNK15IORegistryEntry12copyLocationEPK15IORegistryPlane
__ZNK6OSData9isEqualToEPK8OSString
__ZNK8OSObject7releaseEv
__ZN13IOCommandGateC2EPK11OSMetaClass
_ether_frameout
__ZN18IORegistryIterator11iterateOverEPK15IORegistryPlanem
_IOMallocAligned
__ZN12IOPMinformee9MetaClassC2Ev
__ZNK25IOGeneralMemoryDescriptor12getMetaClassEv
__ZNK5IOCPU12getMetaClassEv
__ZN10IOMachPort14setHoldDestroyEP8OSObjectj
__ZN29IOInterleavedMemoryDescriptorD2Ev
__ZN24IOBufferMemoryDescriptor13initWithBytesEPKvj11IODirectionb
_mbuf_mclhasreference
__ZN12OSCollection9MetaClassC2Ev
__ZNK12OSOrderedSet11getCapacityEv
_ubc_upl_unmap
_err_write
__ZN9IOService19registerPowerDriverEPS_P14IOPMPowerStatem
__ZN20OSCollectionIteratorD2Ev
__ZN9IOService10systemWakeEv
__ZN18IOMemoryDescriptor30withPersistentMemoryDescriptorEPS_
_mbuf_setlen
__ZN16IOPlatformExpert26_RESERVEDIOPlatformExpert4Ev
_uuid_copy
__ZN11IOMemoryMap5unmapEv
_splon
__ZN16IOPMinformeeList4freeEv
__ZNK24IOBufferMemoryDescriptor9MetaClass5allocEv
__ZN16IOPlatformDeviceC2EPK11OSMetaClass
__ZN10IOMachPortD2Ev
__ZN9IOService6PMstopEv
_sysctl_rdint
_vnode_put
_vnode_isblk
_uio_duplicate
__ZN5OSSet14copyCollectionEP12OSDictionary
__ZN9IOService20_RESERVEDIOService47Ev
__ZN15IOPMPowerSource15atCriticalLevelEv
__ZN11IOResources18matchPropertyTableEP12OSDictionary
_clock_get_system_value
_nop_read
__ZNK13IOEventSource9MetaClass5allocEv
__ZN16IOPMinformeeList11firstInListEv
__ZN16IOPlatformExpert5startEP9IOService
__ZTV13IOCommandPool
_strlcpy
__ZN27IOSharedInterruptController23initInterruptControllerEP21IOInterruptControllerP6OSData
__ZN22_IOOpenServiceIteratorC1EPK11OSMetaClass
__ZN9IOService13addPowerChildEPS_
__ZN7OSArrayC2EPK11OSMetaClass
__ZN17IOBigMemoryCursor10gMetaClassE
_kauth_acl_alloc
_mbuf_concatenate
__ZN10IONotifierC1EPK11OSMetaClass
__ZN16IOPMinformeeListC2Ev
__ZN8OSString18_RESERVEDOSString0Ev
__ZN9IOService16registerInterestEPK8OSSymbolPFiPvS3_mPS_S3_jES3_S3_
__ZN9IOService6PMfreeEv
_thread_call_enter1
__ZN12IOUserClient22_RESERVEDIOUserClient9Ev
__ZNK15IORegistryEntry8copyNameEPK15IORegistryPlane
__ZN12OSSerializerD0Ev
__ZN8OSSymbol9MetaClassC1Ev
__ZTVN14IOPMrootDomain9MetaClassE
__ZN18IOUserNotification9metaClassE
__ZN16IOPlatformExpert25PMInstantiatePowerDomainsEv
__ZN7OSArray17_RESERVEDOSArray0Ev
_IODTGetLoaderInfo
__ZNK18IORegistryIterator9MetaClass5allocEv
__ZTV20RootDomainUserClient
__ZN12OSDictionary22_RESERVEDOSDictionary7Ev
_vm_map_copy_discard
_stack_privilege
__ZN18IORegistryIterator10enterEntryEv
__ZN5IOCPU15_RESERVEDIOCPU7Ev
__ZN9IOService13checkResourceEP8OSObject
_kauth_cred_getntsid
_buf_biodone
__ZN17IOPolledInterface27_RESERVEDIOPolledInterface2Ev
_ttyinput
__ZN9IOService16resourceMatchingEPKcP12OSDictionary
_ipc_kernel_map
__ZN15IORegistryEntry16detachFromParentEPS_PK15IORegistryPlane
__ZN8OSNumberD2Ev
__ZTV27IOSharedInterruptController
__ZN11IODataQueue11withEntriesEmm
__ZN10IOWorkLoop20_RESERVEDIOWorkLoop3Ev
__ZN18IOUserNotification10superClassE
__ZN26_IOServiceInterestNotifier6removeEv
_kauth_cred_uid2guid
__ZN24IOBufferMemoryDescriptor4freeEv
__ZN11IOMemoryMapD2Ev
_vfs_setmaxsymlen
__ZN9IOService19actionWillTerminateEPS_mP7OSArray
__ZN21IOInterruptController10gMetaClassE
__ZN15IOPMPowerSource8setModelEP8OSSymbol
__ZN24IOBufferMemoryDescriptor15initWithOptionsEmjj
__ZN16IOKitDiagnosticsC2Ev
__ZN18IOMemoryDescriptor29_RESERVEDIOMemoryDescriptor14Ev
__ZN5IOCPU11setPropertyEPK8OSSymbolP8OSObject
__ZN9IOService16resolveInterruptEPS_i
__ZN15IOPMPowerSource14setAdapterInfoEi
__ZN12IODMACommand8completeEbb
__ZN17IONVRAMControllerD0Ev
__ZN12OSDictionary9setObjectEPKcPK15OSMetaClassBase
__ZN22IOInterruptEventSource9MetaClassC1Ev
__ZN11OSSerializeC1Ev
_err_readlink
__ZN14IOPMrootDomain5startEP9IOService
_strsep
__ZN7OSArray13initWithArrayEPKS_j
__ZN11OSSerialize9metaClassE
__ZN15IORegistryEntryC2EPK11OSMetaClass
__ZN8OSObject19_RESERVEDOSObject12Ev
_buf_count
__ZN12IOUserClient21destroyUserReferencesEP8OSObject
__ZN9IOService10handleOpenEPS_mPv
_KUNCExecute
__ZNK9IOService8getStateEv
_buf_setlblkno
__ZN15IOWatchDogTimer5startEP9IOService
__ZN18_IOServiceNotifier9MetaClassC1Ev
_sockopt_level
__ZN11IOMemoryMap9metaClassE
__ZN17IOBigMemoryCursor9MetaClassC1Ev
__ZTVN26_IOServiceInterestNotifier9MetaClassE
__ZNK22IOInterruptEventSource11getIntIndexEv
__ZN13IOCommandPool10superClassE
__ZN13IOCommandPool23_RESERVEDIOCommandPool4Ev
_nop_exchange
__ZNK20OSCollectionIterator12getMetaClassEv
__ZTVN8OSSymbol9MetaClassE
_err_remove
__ZN13IOCommandGate9MetaClassC1Ev
_rtfree
__ZN15IOConditionLock4lockEv
__ZN8OSSymbol17withCStringNoCopyEPKc
__ZN8OSSymbol18_RESERVEDOSSymbol6Ev
__ZN21IONaturalMemoryCursorC2Ev
_mbuf_tag_find
_nop_advlock
__ZN21IONaturalMemoryCursor17withSpecificationEmmm
_mach_memory_entry_range_op
_registerPrioritySleepWakeInterest
_IOPageableMapForAddress
_StartIOKit
__ZNK13IOEventSource11getWorkLoopEv
__ZN21IOInterruptController11causeVectorElP17IOInterruptVector
__ZN5IOCPU8initCPUsEv
_pru_shutdown_notsupp
__ZN12IORootParentC1EPK11OSMetaClass
__ZN13IOCommandPool12withWorkLoopEP10IOWorkLoop
_kauth_cred_getuid
_fd_rdwr
__ZNK8OSSymbol9isEqualToEPK15OSMetaClassBase
__ZTVN12OSOrderedSet9MetaClassE
__ZN6OSData9withBytesEPKvj
__ZTVN15IORegistryPlane9MetaClassE
_sock_retain
__ZN10IONotifierD2Ev
_sock_receive
__ZN16IOPlatformExpert14getBootROMTypeEv
_utf8_encodelen
__ZN8IOSyncer9MetaClassC1Ev
__ZN21IOInterruptControllerC2EPK11OSMetaClass
__ZN9IOService22changePowerStateToPrivEm
__ZN22IOInterruptEventSource32_RESERVEDIOInterruptEventSource3Ev
_vfs_typenum
_PE_halt_restart
__ZN12OSSerializer9forTargetEPvPFbS0_S0_P11OSSerializeES0_
_timeout
__ZN23IOMultiMemoryDescriptor9MetaClassC1Ev
__ZN21IOInterruptControllerD2Ev
__ZNK16IOPlatformExpert12getMetaClassEv
__ZN16IOKitDiagnosticsD0Ev
__ZN11OSSerialize9MetaClassC2Ev
__ZN15IORegistryEntry7setNameEPK8OSSymbolPK15IORegistryPlane
_buf_setflags
__ZN16IOPlatformExpertC2Ev
__ZNK15IORegistryPlane12getMetaClassEv
_err_setattr
__ZN12IODMACommand14OutputLittle32EPS_NS_9Segment64EPvm
__MALLOC
__ZNK12OSOrderedSet9isEqualToEPKS_
_port_name_to_thread
__ZNK12OSOrderedSet12getMetaClassEv
__ZN9IOService11handleCloseEPS_m
_proc_exiting
__ZN16IORangeAllocatorD2Ev
_nop_rmdir
__ZN15IORegistryEntry13setPropertiesEP8OSObject
__ZN8OSString14initWithStringEPKS_
__ZN9IODTNVRAM16escapeDataToDataEP6OSData
__ZN24IOCPUInterruptController10superClassE
_kauth_cred_ismember_gid
_processor_info
_enodev
__ZN7OSArrayC2Ev
__ZN10OSIterator20_RESERVEDOSIterator3Ev
__ZN14IOPMrootDomain14publishFeatureEPKcjPj
_kdp_set_ip_and_mac_addresses
__ZN17IONVRAMController5startEP9IOService
__ZN16IOPlatformExpertC2EPK11OSMetaClass
__ZN9OSBoolean19_RESERVEDOSBoolean5Ev
__ZN10IOWorkLoop9metaClassE
_soisconnecting
_ifnet_stat_increment_out
__ZN12OSSymbolPool13nextHashStateEP17OSSymbolPoolState
_ifnet_allocate
__ZN11IODataQueue16initWithCapacityEm
__ZN10IOWorkLoop9closeGateEv
__ZN12IODMACommand15genIOVMSegmentsEPyPvPm
_proto_inject
_uio_setrw
__ZNK15IORegistryEntry17getParentIteratorEPK15IORegistryPlane
__ZN9IOService20_RESERVEDIOService42Ev
__ZNK14IOPMrootDomain12getMetaClassEv
__ZN15IOWatchDogTimer25_RESERVEDIOWatchDogTimer2Ev
__ZN12OSOrderedSet22_RESERVEDOSOrderedSet1Ev
__ZTV17IONVRAMController
_bzero
__ZN9IOService16disableInterruptEi
_OSKextLoadKextWithIdentifier
_err_offtoblk
__ZN9IOService23acknowledgeNotificationEPvm
__ZN18IOTimerEventSourceC1Ev
__ZNK16IOPMinformeeList12getMetaClassEv
__ZNK9IOService11getWorkLoopEv
_IONDRVLibrariesInitialize
__ZN17IONVRAMControllerC2EPK11OSMetaClass
__ZN9IOService13setPowerStateEmPS_
__ZN27IOSharedInterruptController10gMetaClassE
__ZN16IOPMinformeeListD2Ev
__ZN9IOService10makeUsableEv
__ZTV22_IOOpenServiceIterator
__ZN24IOCPUInterruptController15handleInterruptEPvP9IOServicei
__ZNK18IOMemoryDescriptor12getMetaClassEv
__ZN12IODMACommand23_RESERVEDIODMACommand13Ev
__ZN8IOSyncer4waitEb
__ZN8OSObjectD2Ev
__ZN12IOUserClient9MetaClassC1Ev
__ZN15IOPMPowerSource10cycleCountEv
__ZN16IOPlatformDevice9metaClassE
__ZN11IODataQueue15initWithEntriesEmm
_ubc_create_upl
__ZN12OSDictionary22_RESERVEDOSDictionary2Ev
_version_stage
_invalidate_icache64
_net_add_proto
__ZN15IOPMPowerSource13timeRemainingEv
_unmountroot_pre_hook
__ZN10OSIterator9MetaClassC2Ev
_vfs_setflags
__ZNK15IORegistryEntry14getParentEntryEPK15IORegistryPlane
__ZN16IOPlatformExpert15getGMTTimeOfDayEv
_vfs_fsprivate
_vnop_default_desc
__ZN10IOWorkLoop10gMetaClassE
_OSDecrementAtomic
__ZN12IODMACommand26getPreparedOffsetAndLengthEPyS0_
_vnode_isdir
_vfs_context_bind
__ZN13_IOServiceJobC2Ev
_mbuf_settype
_uuid_unparse
__ZN12OSDictionary14ensureCapacityEj
__ZN16IOPlatformExpert16atInterruptLevelEv
__ZSt20__throw_length_errorPKc
__ZN5IOCPU15_RESERVEDIOCPU2Ev
_register_decmpfs_decompressor
_ifnet_set_idle_flags
__ZNK9IODTNVRAM17getOFVariableTypeEPK8OSSymbol
__ZN18IOTimerEventSource28_RESERVEDIOTimerEventSource7Ev
__ZN6OSData16_RESERVEDOSData5Ev
_xattr_validatename
_thread_wakeup_prim
__ZN8OSNumber4initEyj
__ZN18_IOServiceNotifier6removeEv
__ZN21IONaturalMemoryCursor9MetaClassC1Ev
__ZN17IOPolledInterface28_RESERVEDIOPolledInterface12Ev
_MD5Init
__ZN5OSSetC1Ev
__ZN12IOUserClient22_RESERVEDIOUserClient2Ev
__ZN5OSSet15_RESERVEDOSSet4Ev
__ZNK12OSSerializer9MetaClass5allocEv
__ZN18IODTPlatformExpertD1Ev
_hfs_pickencoding
__ZN9OSBoolean4freeEv
__ZN12OSSerializer10superClassE
__ZN8OSObject18_RESERVEDOSObject6Ev
__ZN6OSData8withDataEPKS_jj
_err_mkdir
_ttwakeup
__ZN5IOCPU11getCPUStateEv
_vfs_event_signal
__ZN11IOMemoryMap21_RESERVEDIOMemoryMap0Ev
__ZN24IOCPUInterruptControllerD2Ev
_vnop_lookup_desc
__ZN22IOInterruptEventSourceD2Ev
__ZNK11IOCatalogue14isModuleLoadedEP8OSString
_vnode_waitforwrites
__ZN12OSOrderedSet4freeEv
__ZN17IOPowerConnection14getAwaitingAckEv
_gIOProbeScoreKey
_mbuf_attachcluster
__ZN8OSString9MetaClassC2Ev
__ZN13IOCommandPoolD0Ev
__ZN8IOSyncer6createEb
__ZN16IOPMinformeeList9MetaClassC2Ev
__ZTV16IODMAEventSource
__ZN8IOSyncer6reinitEv
_VNOP_READ
__ZN12IODMACommand17withSpecificationEPFbPS_NS_9Segment64EPvmEhyNS_14MappingOptionsEymP8IOMapperS2_
__ZNK7OSArray9serializeEP11OSSerialize
__ZNK15IORegistryEntry12copyPropertyEPKc
__ZN9IOService20_RESERVEDIOService20Ev
__ZN9IODTNVRAM10gMetaClassE
__ZN13IOCommandPool13returnCommandEP9IOCommand
__ZN13IOEventSource9metaClassE
__ZN9IOService16setCPUSnoopDelayEm
__ZNK9OSBoolean9serializeEP11OSSerialize
_ml_arm_sleep
__ZN12OSDictionary12withCapacityEj
__ZN10IOWorkLoop9MetaClassC2Ev
_gIODTRangeKey
__ZN12IOUserClient19clientMemoryForTypeEmPmPP18IOMemoryDescriptor
_ifaddr_reference
__ZTVN8IOSyncer9MetaClassE
__ZN8OSNumber8addValueEx
__ZN22IOInterruptEventSourceC1EPK11OSMetaClass
__ZN9IODTNVRAM15initOFVariablesEv
__ZN14IOPMrootDomainD0Ev
__ZN12IODMACommand12cloneCommandEPv
_lck_grp_attr_setdefault
_mac_vnop_setxattr
_SHA1Update
_proc_forcequota
__ZN18IOMemoryDescriptor15initWithAddressEjm11IODirectionP4task
_IOFindNameForValue
_tk_nin
__ZN9IODTNVRAM19convertPropToObjectEPhmS0_mPPK8OSSymbolPP8OSObject
__ZN9IOService18setIdleTimerPeriodEm
_vnode_mountedhere
__ZN24IOBufferMemoryDescriptor35_RESERVEDIOBufferMemoryDescriptor13Ev
__ZN16IOPlatformExpertC1EPK11OSMetaClass
__ZN8IOPMprotC2Ev
__ZN12OSDictionary14withDictionaryEPKS_j
__ZN17IOPowerConnection9metaClassE
__ZN12OSDictionary9MetaClassC2Ev
_utf8_decodestr
_gIOPlatformWakeActionKey
__ZN8OSString10superClassE
__ZN18_IOServiceNotifier6enableEb
__ZNK15IODMAController9MetaClass5allocEv
__ZN12IODMACommand22_RESERVEDIODMACommand8Ev
__ZN22_IOOpenServiceIteratorD2Ev
__ZNK12OSDictionary8getCountEv
__ZTV24IOCPUInterruptController
__ZTV9OSBoolean
__ZN18IOTimerEventSource10superClassE
_buf_markfua
__ZN20RootDomainUserClient5startEP9IOService
__ZN17IOBigMemoryCursorC2EPK11OSMetaClass
_sock_shutdown
_ifaddr_withdstaddr
__ZNK26_IOServiceInterestNotifier12getMetaClassEv
__ZN21IOSubMemoryDescriptorD0Ev
_groupmember
__ZN7OSArray17_RESERVEDOSArray7Ev
__ZTV12OSSymbolPool
__ZN9IOService26deRegisterInterestedDriverEPS_
__ZN12OSDictionary11withObjectsEPPK8OSObjectPPK8OSStringjj
_FastUnicodeCompare
__ZN15IODMAController16notifyDMACommandEP16IODMAEventSourceP12IODMACommandim
__ZN28IOFilterInterruptEventSource38_RESERVEDIOFilterInterruptEventSource4Ev
__ZNK16IOKitDiagnostics9serializeEP11OSSerialize
__ZN12OSCollection4initEv
__ZN11IOCatalogueD2Ev
_pru_disconnect_notsupp
_fuibyte
__ZN15IOPMPowerSource10setVoltageEj
_PE_poll_input
__ZN8IOPMprot9metaClassE
_uuid_is_null
_vnode_vfsisrdonly
__ZN15IOWatchDogTimerC1EPK11OSMetaClass
__ZN21IOInterruptController10initVectorElP17IOInterruptVector
__ZN13IOCommandPoolC2Ev
__ZN15IOConditionLock6unlockEv
__ZN17IONVRAMController4syncEv
_bpfattach
__ZN9IOService16requestTerminateEPS_m
_ctl_register
__ZN5IOCPU13setPropertiesEP8OSObject
__ZN16IOPlatformExpert9MetaClassC2Ev
_mig_get_reply_port
_vnop_getxattr_desc
_ifnet_touch_lastchange
_pru_sense_null
__ZN9IOServiceC2Ev
_IOSetProcessorCacheMode
_hfs_getconverter
_pru_peeraddr_notsupp
_proc_pgrpid
__ZN18IOTimerEventSourceC1EPK11OSMetaClass
__ZNK8OSObject7releaseEi
__ZN9IOService13matchLocationEPS_
__ZN9IOService13askChangeDownEm
__ZN17IOBigMemoryCursor13outputSegmentEN14IOMemoryCursor15PhysicalSegmentEPvm
__ZN5OSSet20setCapacityIncrementEj
_bcopy
__ZN25IOGeneralMemoryDescriptor12setPurgeableEmPm
__ZN11OSSerialize9clearTextEv
__ZN15IORegistryEntry17matchPathLocationEPKcPK15IORegistryPlane
_cluster_pagein_ext
_ml_thread_policy
_gIOKitDebug
__ZN11OSMetaClass19printInstanceCountsEv
_proto_input
_buf_vnode
__ZNK19IOPMPowerSourceList9MetaClass5allocEv
_ifmaddr_reference
_kprintf
__ZN24IOCPUInterruptController30registerCPUInterruptControllerEv
_buf_proc
__ZN9IOService17addNeededResourceEPKc
_ubc_setsize
__ZN17IOPolledInterface10gMetaClassE
__ZNK23IOMultiMemoryDescriptor12getMetaClassEv
__ZNK29IOInterleavedMemoryDescriptor9MetaClass5allocEv
__ZN12IODMACommand11OutputBig64EPS_NS_9Segment64EPvm
_isdisk
_IORWLockAlloc
__ZN22IOInterruptEventSource24disableInterruptOccurredEPvP9IOServicei
_version_major
_vnop_getattr_desc
__ZN9IOService20_RESERVEDIOService13Ev
_nop_link
__ZN9IOService4openEPS_mPv
__ZN9IOService24requireMaxInterruptDelayEj
_mbuf_setflags
_desiredvnodes
__ZTV19IOPMPowerSourceList
_VNOP_SETXATTR
__ZTV13_IOServiceJob
__ZN24IOCPUInterruptController17registerInterruptEP9IOServiceiPvPFvS2_S2_S2_iES2_
_inflateInit_
__ZN21IOInterruptController31_RESERVEDIOInterruptController3Ev
__ZNK12OSDictionary9isEqualToEPK15OSMetaClassBase
__ZN16IOPlatformDeviceD2Ev
_OSUnserializenerrs
__ZN17IOSharedDataQueue27_RESERVEDIOSharedDataQueue4Ev
__ZN9IODTNVRAM19unescapeBytesToDataEPKhm
__ZN7OSArrayC1EPK11OSMetaClass
__ZN5OSSet9metaClassE
__ZN12OSDictionary15initWithObjectsEPPK8OSObjectPPK8OSSymboljj
_ubc_upl_maxbufsize
__ZN18IORegistryIterator4freeEv
__ZNK8OSNumber9serializeEP11OSSerialize
__ZN16IORangeAllocator19getFragmentCapacityEv
_vnode_isnocache
_sysctl_int
_OSCompareAndSwap
__ZN12OSDictionaryC1Ev
_inflateSync
_vfs_setauthopaqueaccess
_gIORangeAllocatorLock
_OSIncrementAtomic8
__ZN17IOPowerConnection23getPreventIdleSleepFlagEv
__ZN15IOPMPowerSource9metaClassE
__ZTV14IOMemoryCursor
__ZN12OSOrderedSetD2Ev
__ZN14IOPMrootDomain17setAggressivenessEmm
_vnode_setmountedon
_ifnet_output_raw
__ZN15IORegistryEntry26_RESERVEDIORegistryEntry14Ev
__ZNK7OSArray12getMetaClassEv
__ZN8OSSymbolD2Ev
_buf_valid
__ZN24IOBufferMemoryDescriptor14getBytesNoCopyEjj
__ZN8OSObject19_RESERVEDOSObject11Ev
_assert_wait
__ZN20IOLittleMemoryCursor9MetaClassC1Ev
__ZN6OSData20setCapacityIncrementEj
__ZN15IORegistryEntry8fromPathEPKcPK15IORegistryPlanePcPiPS_
_sock_receivembuf
__ZN13IOCommandGateC2Ev
_vfs_rootvnode
_IOCDMatching
_IORWLockGetMachLock
__ZTV8IOMapper
_ifnet_lastchange
__ZN24IOBufferMemoryDescriptor9setLengthEj
__ZN11IOMemoryMap8redirectEP18IOMemoryDescriptormj
_buf_rcred
__ZN11IOMemoryMap8redirectEP18IOMemoryDescriptormm
_sopoll
__ZN10IOWorkLoopC1EPK11OSMetaClass
_buf_markeintr
__ZN17IOSharedDataQueue9MetaClassC2Ev
__ZNK15IORegistryEntry12copyPropertyEPKcPK15IORegistryPlanem
__ZN14IOMemoryCursorD2Ev
__ZN5OSSet11withObjectsEPPK8OSObjectjj
__ZN14IOPMrootDomainC2EPK11OSMetaClass
_linesw
__ZN11IOMemoryMapC2EPK11OSMetaClass
_page_mask
_mbuf_pulldown
__ZTVN12OSDictionary9MetaClassE
_iflt_detach
_vnop_removenamedstream_desc
__ZN6OSData19initWithBytesNoCopyEPvj
_IOMallocPageable
__ZN5OSSetD2Ev
_minphys
_gIODTTypeKey
__ZN15IORegistryEntry26_RESERVEDIORegistryEntry26Ev
__ZN11OSSerialize21_RESERVEDOSSerialize1Ev
__ZN18_IOServiceNotifierC1EPK11OSMetaClass
__ZN8OSSymbol15initWithCStringEPKc
__ZN13_IOServiceJobC1EPK11OSMetaClass
__ZN12OSOrderedSet9setObjectEjPK15OSMetaClassBase
__ZN16IOPlatformDevice26_RESERVEDIOPlatformDevice1Ev
_sock_connectwait
__ZN14IOPMrootDomain24receivePowerNotificationEm
__ZN15IORegistryPlane9metaClassE
_uio_rw
_sysctl_handle_quad
_vfs_setunmountpreflight
__ZN21IOInterruptController15enableInterruptEP9IOServicei
_ubc_upl_pageinfo
_vfs_mntlabel
__ZN22_IOOpenServiceIterator9MetaClassC1Ev
__ZN19IOPMPowerSourceList10superClassE
__ZN11OSMetaClass21_RESERVEDOSMetaClass0Ev
_vm_map_copy_copy
__ZTVN13IOEventSource9MetaClassE
_OSBitOrAtomic16
_gIONameMatchedKey
_err_fsync
_IOSystemShutdownNotification
__ZNK16IOKitDiagnostics12getMetaClassEv
_vnode_getattr
__ZN8OSString19_RESERVEDOSString13Ev
_err_readdir
__ZN16IOPlatformExpert21platformAdjustServiceEP9IOService
__ZN18IOMemoryDescriptorD2Ev
__ZN24IOBufferMemoryDescriptor35_RESERVEDIOBufferMemoryDescriptor12Ev
_strchr
_vn_getpath
__ZN9OSBoolean19_RESERVEDOSBoolean7Ev
__ZNK9IOService19serializePropertiesEP11OSSerialize
__ZN19IOPMPowerSourceListC1Ev
__ZN15IOPMPowerSource8amperageEv
_ifnet_reference
__ZN16IOKitDiagnostics12updateOffsetEP12OSDictionarymPKc
_ubc_setthreadcred
__ZN23IOMultiMemoryDescriptor9metaClassE
__ZN12IODMACommand21clearMemoryDescriptorEb
__ZN8OSNumberC1EPK11OSMetaClass
__ZN17IONVRAMControllerC1EPK11OSMetaClass
__ZNK12OSDictionary9isEqualToEPKS_PK12OSCollection
__ZN15IOPMPowerSourceD2Ev
_vfs_isrdwr
_IOMappedRead16
__ZN20IOLittleMemoryCursorD2Ev
__ZN9IOService15errnoFromReturnEi
_mbuf_pkthdr_len
__ZN9IODTNVRAM15syncOFVariablesEv
_vnop_advlock_desc
_OSBitXorAtomic8
_seltrue
_ipf_inject_output
_ifnet_flags
__ZN13IOCommandGate4freeEv
_nop_reclaim
__ZN9IOService16command_receivedEPvS0_S0_S0_
__ZN17IOPowerConnectionC2EPK11OSMetaClass
__ZN11IODataQueue7enqueueEPvm
__ZNK15OSMetaClassMeta5allocEv
_mbuf_getpacket
__ZN15IORegistryPlane9MetaClassC1Ev
__ZTVN18IOUserNotification9MetaClassE
_cache_purge
_vfs_context_ucred
_buf_dirtyend
__ZN12OSSymbolPoolnwEm
__ZN23IOMultiMemoryDescriptorC2EPK11OSMetaClass
__Z27IODTInterruptControllerNameP15IORegistryEntry
__ZN8IOPMprot9MetaClassC2Ev
__ZN18IORegistryIterator10enterEntryEPK15IORegistryPlane
_file_vnode
_task_reference
__ZNK5IOCPU9MetaClass5allocEv
_kauth_cred_getguid
__giDebugReserved2
__giDebugReserved1
_nop_inactive
_vnop_allocate_desc
_ifnet_set_eflags
_nullop
__ZNK11OSMetaClass13taggedReleaseEPKvi
_mbuf_dup
__ZN25IOGeneralMemoryDescriptor14initWithRangesEP14IOVirtualRangem11IODirectionP4taskb
__ZN23IOMultiMemoryDescriptor10superClassE
_ifnet_output
__ZN11IOCatalogue10initializeEv
__ZN5OSSet15_RESERVEDOSSet6Ev
_VNOP_BWRITE
__ZNK13IOCommandPool9MetaClass5allocEv
_kernel_task
_inflateSetDictionary
__ZN5IOCPU9metaClassE
__ZN18IOMemoryDescriptor4freeEv
_port_name_to_task
_vnode_specrdev
__ZTVN14IOMemoryCursor9MetaClassE
__ZN9IOService18lockForArbitrationEb
__ZN11OSMetaClass18allocClassWithNameEPKc
_vnop_searchfs_desc
__Z22OSFlushObjectTrackListv
_processor_exit
_proc_ucred
__ZN18IORegistryIterator5resetEv
__ZN9IOServiceC1Ev
_err_ioctl
__ZN13IOCommandGate4initEP8OSObjectPFiS1_PvS2_S2_S2_E
__ZN15IORegistryEntry7setNameEPKcPK15IORegistryPlane
_OSMalloc_nowait
__ZN5OSSet16initWithCapacityEj
__ZN12IODMACommand9metaClassE
__ZNK8OSNumber12getMetaClassEv
__ZN10IOWorkLoop20_RESERVEDIOWorkLoop7Ev
_vnode_removefsref
__ZTV13IOEventSource
__ZNK15IOPMPowerSource12getMetaClassEv
__ZN8IOMapper4freeEv
__ZN14IOPMrootDomain24systemPowerEventOccurredEPK8OSSymbolP8OSObject
__ZN17IOPolledInterface27_RESERVEDIOPolledInterface6Ev
__ZN13IOEventSource23_RESERVEDIOEventSource0Ev
_buf_setvnode
_copyout
__ZN17IOBigMemoryCursorC1EPK11OSMetaClass
__FREE
__ZN11OSSerialize21_RESERVEDOSSerialize7Ev
__ZN11IODataQueue12withCapacityEm
_semaphore_destroy
_IOCPURunPlatformActiveActions
__ZN9IOService18settleTimerExpiredEv
_vttoif_tab
__ZN12IORootParent10wakeSystemEv
_kern_os_malloc
__ZNK5OSSet6memberEPK15OSMetaClassBase
_kauth_authorize_process
__ZN20IOLittleMemoryCursorC2EPK11OSMetaClass
_semaphore_wait_deadline
_tsleep
_cluster_copy_upl_data
__ZN20RootDomainUserClient26getTargetAndMethodForIndexEPP9IOServicem
_vfs_authcache_ttl
_nop_getattr
_sock_getlistener
__ZN16IOPlatformExpert14setBootROMTypeEl
_zlibVersion
__ZNK11OSMetaClass18instanceDestructedEv
__ZN14IOPMrootDomain13copyPMSettingEP8OSSymbol
_proc_noremotehang
__ZNK23IOMultiMemoryDescriptor9MetaClass5allocEv
__ZN12OSOrderedSet10superClassE
_unputc
_mbuf_pkthdr_setlen
_uio_offset
_err_blktooff
_kdp_set_interface
__ZN18_IOServiceNotifier4freeEv
__ZN9IOService23tellClientsWithResponseEi
_fifo_open
__ZN18IODTPlatformExpert15processTopLevelEP15IORegistryEntry
__ZN15IODMAController9metaClassE
__ZNK28IOFilterInterruptEventSource15getFilterActionEv
_vnop_getnamedstream_desc
_mbuf_set_vlan_tag
_pffindproto
__ZN16IOPlatformExpert25setCPUInterruptPropertiesEP9IOService
_vm_map_copyin_common
__ZNK8OSObject12getMetaClassEv
__ZN17IOPolledInterface15checkAllForWorkEv
__ZN12IOUserClient26getTargetAndMethodForIndexEPP9IOServicem
__ZNK10IONotifier9MetaClass5allocEv
__ZNK11OSMetaClass12getClassNameEv
_uuid_generate
__ZN11IOCatalogue16terminateDriversEP12OSDictionary
__ZN12OSCollection22_RESERVEDOSCollection4Ev
_gIOTerminatedNotification
__ZNK5OSSet14containsObjectEPK15OSMetaClassBase
_kauth_cred_guid2ntsid
_gIOMatchedNotification
_kauth_cred_ntsid2gid
_vcount
_gIOPathMatchKey
__ZN15IOWatchDogTimerD0Ev
__ZN10IOWorkLoop9sleepGateEPv12UnsignedWidem
_mbuf_allocpacket_list
__ZN8OSStringD0Ev
__ZN12OSDictionaryD2Ev
_sysctl_struct
_kauth_cred_ref
__ZN12OSSymbolPool6exp2mlEj
__ZN27IOSharedInterruptController9MetaClassC2Ev
__ZN22IOInterruptEventSource32_RESERVEDIOInterruptEventSource7Ev
__ZN21IOInterruptController9MetaClassC2Ev
__ZN11IOMemoryMap10superClassE
__ZN20OSCollectionIterator5resetEv
__ZN14IOPMrootDomain24systemPowerEventOccurredEPK8OSSymbolj
__ZN13IOCommandGate11setWorkLoopEP10IOWorkLoop
_mac_audit_text
__ZN15IORegistryEntry11setPropertyEPKcb
__ZN8IOPMprot9MetaClassC1Ev
_ifnet_offload
__ZN12IOUserClient20exportObjectToClientEP4taskP8OSObjectPS3_
__ZN15IOPMPowerSource11setAmperageEi
_uio_resid
__ZNK17IOBigMemoryCursor9MetaClass5allocEv
_proc_selfpid
__ZN27IOSharedInterruptController37_RESERVEDIOSharedInterruptController3Ev
__ZN9IOService23addMatchingNotificationEPK8OSSymbolP12OSDictionaryPFbPvS5_PS_P10IONotifierES5_S5_l
_gIOLocationKey
__ZN18IODTPlatformExpert14getMachineNameEPci
_vfs_getnewfsid
__ZN16IOPMinformeeList10nextInListEP12IOPMinformee
__ZN8OSSymbol10initializeEv
__ZTV16IOKitDiagnostics
_lck_mtx_init
__ZNK10IOWorkLoop9getThreadEv
__ZN14IOMemoryCursor19genPhysicalSegmentsEP18IOMemoryDescriptormPvmmPm
_sbspace
__ZN9IOService19deliverNotificationEPK8OSSymbolmm
__ZN12OSOrderedSet13setLastObjectEPK15OSMetaClassBase
_m_prepend_2
_OSFree
_ifaddr_address
_nop_fsync
__ZN7OSArray14ensureCapacityEj
_aes_encrypt_key128
__ZN16IOPlatformExpert16hasPrivPMFeatureEm
__ZN8OSSymbol14initWithStringEPK8OSString
_cluster_write_ext
__ZN18IODTPlatformExpert18writeNVRAMPropertyEP15IORegistryEntryPK8OSSymbolP6OSData
__ZN15IOWatchDogTimer10superClassE
__ZN25IOGeneralMemoryDescriptor5doMapEP7_vm_mapPjmmm
__ZN12IOPMinformeeD0Ev
_mbuf_tag_id_find
_strtol
__ZN11IOCatalogueC1Ev
__ZN17IOBigMemoryCursorC1Ev
_OSIncrementAtomic16
__ZN16IOPMinformeeList13numberOfItemsEv
__ZN27IOSharedInterruptController10superClassE
_sbuf_cat
_ip_output
__ZN6OSData8withDataEPKS_
__ZN13IOEventSource23_RESERVEDIOEventSource5Ev
__ZN16IODMAEventSource9MetaClassC1Ev
__ZTVN20RootDomainUserClient9MetaClassE
_strtoq
_mbuf_get_vlan_tag
_kauth_deregister_scope
__ZN11OSSerializeD0Ev
__ZN5IOCPU11setCPUStateEm
__ZN9IOService12getBusyStateEv
_clock_delay_until
__ZN11IOMemoryMapD0Ev
__ZN12IOUserClient10gMetaClassE
__ZN12IODMACommand12getAlignmentEv
__ZN24IOBufferMemoryDescriptor9MetaClassC2Ev
__ZN15IORegistryEntry26_RESERVEDIORegistryEntry28Ev
__ZN21IOInterruptController15handleInterruptEPvP9IOServicei
__ZN5IOCPU9signalCPUEPS_
_sockopt_copyout
__ZN13IOEventSource9closeGateEv
__ZN22_IOOpenServiceIterator9metaClassE
_printf
__ZN12IODMACommand19setMemoryDescriptorEPK18IOMemoryDescriptorb
_throttle_info_create
__ZN11IOResourcesC2Ev
__ZNK17IOPowerConnection9MetaClass5allocEv
__ZN9IOService20callPlatformFunctionEPK8OSSymbolbPvS3_S3_S3_
_nop_mkdir
_ifnet_set_link_mib_data
__ZN11OSMetaClass21checkMetaCastWithNameEPK8OSSymbolPK15OSMetaClassBase
_uio_iovcnt
_buf_bread
_ubc_upl_abort_range
__ZN24IOBufferMemoryDescriptor9withBytesEPKvj11IODirectionb
_vnop_rename_desc
__ZN18IOMemoryDescriptor11makeMappingEPS_P4taskjmmm
__ZN8IOMapper10superClassE
__ZN8OSString10gMetaClassE
_pru_bind_notsupp
__ZN13IOCommandGate13attemptActionEPFiP8OSObjectPvS2_S2_S2_ES2_S2_S2_S2_
_bcopy_phys
__ZNK16IOPlatformExpert14compareNubNameEPK9IOServiceP8OSStringPS4_
__ZN9IOService20_RESERVEDIOService46Ev
__ZN18IOTimerEventSource15wakeAtTimeTicksEm
_vm_allocate
_err_link
__ZN20RootDomainUserClientC1EPK11OSMetaClass
_mbuf_pkthdr_header
__ZN13_IOServiceJob9MetaClassC2Ev
__ZN12IOUserClient18clientHasPrivilegeEPvPKc
_assert_wait_timeout
__ZN22IOInterruptEventSource32_RESERVEDIOInterruptEventSource1Ev
__ZNK11OSSerialize12getMetaClassEv
__ZN9IOService20_RESERVEDIOService19Ev
_buf_markdelayed
__ZNK18IODTPlatformExpert9MetaClass5allocEv
__ZN8OSString18_RESERVEDOSString4Ev
_thread_dispatchqaddr
__ZN6OSData16_RESERVEDOSData1Ev
__ZN21IOSubMemoryDescriptor4freeEv
_ether_del_proto
__ZNK15IORegistryEntry12copyPropertyEPK8OSSymbolPK15IORegistryPlanem
_OSAddAtomic
__ZNK5OSSet12initIteratorEPv
__ZNK9OSBoolean13taggedReleaseEPKvi
__ZNK8OSObject14getRetainCountEv
__ZN12IORootParentC1Ev
__ZN15IOConditionLock4freeEv
__ZN13_IOServiceJob9metaClassE
__ZN15IORegistryPlaneC1Ev
_vfs_setlocklocal
__ZN15IOPMPowerSource11maxCapacityEv
_memset
__ZN11IOMemoryMap9MetaClassC2Ev
_vfs_isunmount
__ZN12OSDictionary22_RESERVEDOSDictionary6Ev
__ZN24IOCPUInterruptController9MetaClassC2Ev
_gIOServicePlane
_err_mmap
__ZN5IOCPU15_RESERVEDIOCPU6Ev
__ZTVN16IOPMinformeeList9MetaClassE
_IOBSDRegistryEntryRelease
_bpf_tap_out
__ZN11OSSerialize16initWithCapacityEj
_mbuf_get_tso_requested
__ZNK8OSString9serializeEP11OSSerialize
__ZN13IOEventSource7disableEv
__ZN9IOService20_RESERVEDIOService35Ev
_err_pageout
__ZN11IOResources10gMetaClassE
_ifnet_name
__ZNK19IOPMPowerSourceList12getMetaClassEv
_mbuf_trailingspace
_sock_sendmbuf
_splimp
__ZN12OSSymbolPool4log2Ej
__ZN29IOInterleavedMemoryDescriptor18getPhysicalSegmentEmPmm
__ZN12OSSymbolPoolD0Ev
__ZN12OSOrderedSet22_RESERVEDOSOrderedSet4Ev
__ZN7OSArray14copyCollectionEP12OSDictionary
_lck_rw_sleep_deadline
__ZN25IOGeneralMemoryDescriptorC1Ev
__ZN9IOService15getDeviceMemoryEv
__ZN7OSArray10setOptionsEjjPv
__ZN15IOConditionLock9MetaClassC2Ev
__ZN12OSSerializerC1Ev
_vnode_tag
__ZN15IORegistryEntry15detachFromChildEPS_PK15IORegistryPlane
_gIOPlatformSleepActionKey
_sysctl_register_set
__ZN18IORegistryIterator11iterateOverEP15IORegistryEntryPK15IORegistryPlanem
_eopnotsupp
_deflateEnd
_fifo_close
_err_bwrite
__ZN16IOKitDiagnostics10superClassE
__ZN8OSObject18_RESERVEDOSObject2Ev
__ZN8IOMapper18iovmFreeDMACommandEP12IODMACommandjm
_ifaddr_findbestforaddr
_kmem_free
__ZN9IODTNVRAM22readNVRAMPropertyType1EP15IORegistryEntryPPK8OSSymbolPP6OSData
__ZN12IORootParent11sleepToDozeEv
__ZN18IORegistryIterator15getCurrentEntryEv
__ZN11IODataQueue9MetaClassC1Ev
_kauth_cred_guid2gid
__ZNK8IOSyncer12getMetaClassEv
__ZN5OSSet15initWithObjectsEPPK8OSObjectjj
_untimeout
__ZN9IOService18doServiceTerminateEm
__ZN9IOService15enableInterruptEi
__ZN17IOPolledInterface27_RESERVEDIOPolledInterface9Ev
_IORecursiveLockLock
_inet_ntop
__ZN13IOCommandPoolD2Ev
__ZNK6OSData9serializeEP11OSSerialize
__ZN18IOTimerEventSource28_RESERVEDIOTimerEventSource2Ev
_vn_searchfs_inappropriate_name
__ZN9IOCommand10superClassE
_OSBitXorAtomic
__ZN8OSNumber18_RESERVEDOSNumber4Ev
_file_drop
__ZN24IOBufferMemoryDescriptor34_RESERVEDIOBufferMemoryDescriptor6Ev
_ifnet_metric
__ZN15IORegistryEntryC1EPK11OSMetaClass
__ZN15IORegistryEntry25_RESERVEDIORegistryEntry8Ev
__ZN16IOKitDiagnosticsD2Ev
__ZN18IOTimerEventSource12checkForWorkEv
__ZN15IOWatchDogTimer13setPropertiesEP8OSObject
__ZN9IOCommandC2EPK11OSMetaClass
__ZN9IOService19getMatchingServicesEP12OSDictionary
__ZN23IOMultiMemoryDescriptorC2Ev
__ZN12IODMACommand23_RESERVEDIODMACommand11Ev
_vnop_open_desc
__ZN24IOBufferMemoryDescriptor34_RESERVEDIOBufferMemoryDescriptor9Ev
__ZNK5OSSet9MetaClass5allocEv
__ZN15IORegistryEntry9metaClassE
__ZN15OSMetaClassBaseD0Ev
__ZNK22IOInterruptEventSource9MetaClass5allocEv
__ZNK8OSString9isEqualToEPKS_
_buf_setdataptr
__ZN13_IOServiceJobD0Ev
_mbuf_clear_vlan_tag
__ZN20RootDomainUserClientD0Ev
_err_read
__ZN24IOCPUInterruptControllerC2Ev
__ZNK15OSMetaClassBase8metaCastEPK8OSString
__ZN28IOFilterInterruptEventSource38_RESERVEDIOFilterInterruptEventSource0Ev
__ZNK12IORootParent9MetaClass5allocEv
__ZNK13IOCommandGate9MetaClass5allocEv
__ZN8OSObject18_RESERVEDOSObject9Ev
_IORecursiveLockTryLock
__ZNK8OSObject9serializeEP11OSSerialize
__ZN9IOService4freeEv
__ZN18IOTimerEventSource9MetaClassC1Ev
__ZN12IOPMinformee10superClassE
__ZN8OSObject4initEv
__ZN12IORootParent13restartSystemEv
_enosys
_sbuf_finish
__ZNK12OSDictionary11getCapacityEv
__ZN12IODMACommand7prepareEyybb
__ZN10OSIterator9metaClassE
__ZN14IOPMrootDomain14shutdownSystemEv
__ZN5OSSet13initWithArrayEPK7OSArrayj
__ZN26_IOServiceInterestNotifierD2Ev
__ZN8IOSyncerC1EPK11OSMetaClass
_buf_resid
_spec_lookup
__ZN12IOUserClient23_RESERVEDIOUserClient10Ev
__ZN8IOMapper12FreeARTTableEP6OSDatam
_strncasecmp
__ZTV11IOMemoryMap
__ZN12IORootParent14shutDownSystemEv
__ZN25IOGeneralMemoryDescriptor9metaClassE
__ZN15IOPMPowerSource9MetaClassC2Ev
__ZN15IODMAController9MetaClassC2Ev
__ZN7OSArray20setCapacityIncrementEj
_spec_pathconf
__ZN17IOPowerConnection16parentKnowsStateEv
__ZN11IOResources9metaClassE
_soisdisconnecting
__ZN16IORangeAllocator10gMetaClassE
__ZN18IORegistryIteratorC1EPK11OSMetaClass
_nop_revoke
_ifnet_set_tso_mtu
__ZN21IONaturalMemoryCursorC1Ev
__ZN6OSDataC2EPK11OSMetaClass
__ZN11IOCatalogue4initEP7OSArray
_kauth_unlisten_scope
__ZN9IOService15nextIdleTimeoutE12UnsignedWideS0_j
_cdevsw_setkqueueok
__ZNK13IOEventSource8onThreadEv
__ZN11IOResources9MetaClassC2Ev
__ZN18IOMemoryDescriptor29_RESERVEDIOMemoryDescriptor11Ev
_db_piokjunk
__ZN12IOUserClient12initWithTaskEP4taskPvmP12OSDictionary
_ttwwakeup
_lck_rw_try_lock
__ZTV11OSSerialize
__ZN18IODTPlatformExpert28_RESERVEDIODTPlatformExpert6Ev
_OSPrintMemory
__ZN11OSMetaClassC1EPKcPKS_j
__ZN18_IOServiceNotifierC2EPK11OSMetaClass
_sysctl__security_mac_children
__ZN9IODTNVRAM16updateOWBootArgsEPK8OSSymbolP8OSObject
__ZN17IOSharedDataQueueD0Ev
__ZN15IORegistryEntry4initEPS_PK15IORegistryPlane
__ZN14IOPMrootDomain12tellChangeUpEm
__ZN12IODMACommand22_RESERVEDIODMACommand7Ev
__ZN12IOUserClient22_RESERVEDIOUserClient4Ev
_pru_send_notsupp
_ctl_enqueuedata
__dtrace_register_anon_DOF
__ZN11IODataQueueC1Ev
_bdevsw
_m_split
__ZN16IOPlatformExpert21numBatteriesSupportedEv
__ZN11IOCatalogueC2EPK11OSMetaClass
__ZN11OSSerialize12addXMLEndTagEPKc
__ZN20OSCollectionIterator7isValidEv
__ZN8IOPMprotD0Ev
__ZN20OSCollectionIterator9metaClassE
_ifnet_get_address_list_family
_copystr
_suibyte
_ifnet_index
__ZN16IOKitDiagnostics9metaClassE
_kauth_cred_unref
_buf_getcpaddr
__ZN9IOService15powerChangeDoneEm
__ZN18IOMemoryDescriptor10writeBytesEmPKvm
__ZN25IOGeneralMemoryDescriptor20getPhysicalSegment64EmPm
__ZN12OSSymbolPool13initHashStateEv
__ZN7OSArray15initWithObjectsEPPK8OSObjectjj
__ZN28IOFilterInterruptEventSourceC1EPK11OSMetaClass
__ZN8IOMapper10iovmInsertEjmP13upl_page_infom
__ZNK11IOCatalogue9serializeEP11OSSerialize
_spln
_IOPanic
__ZN12IOUserClient24registerNotificationPortEP8ipc_portmy
_OSKextRequestResource
__ZTVN20IOLittleMemoryCursor9MetaClassE
__ZN13IOCommandGate12commandSleepEPvm
__ZN15IORegistryEntry11setPropertyEPKcP8OSObject
_current_act
_proc_isinferior
_timevaladd
__ZN9IOService13willTerminateEPS_m
__ZN14IOMemoryCursor9MetaClassC2Ev
_ifnet_eflags
__ZN7OSArray17_RESERVEDOSArray3Ev
_uio_update
_vnop_select_desc
__ZNK7OSArray12iteratorSizeEv
_host_get_special_port
_pmc_accessible_from_core
_mbuf_maxlen
__ZN11OSMetaClass21_RESERVEDOSMetaClass5Ev
__ZN24IOBufferMemoryDescriptor35_RESERVEDIOBufferMemoryDescriptor11Ev
_vfs_clearauthcache_ttl
__ZN15IORegistryEntryC1Ev
__ZN29IOInterleavedMemoryDescriptor4freeEv
__ZN24IOCPUInterruptController18enableCPUInterruptEP5IOCPU
_lck_rw_done
__ZN16IOPMinformeeList10gMetaClassE
_vfs_context_set_special_port
__ZN21IOSubMemoryDescriptorD2Ev
__ZN10IONotifier10gMetaClassE
__ZN24IOBufferMemoryDescriptor14getBytesNoCopyEv
_uio_create
__ZN8IOMapper18_RESERVEDIOMapper5Ev
_vfs_clearauthopaque
_OSBitOrAtomic8
__ZN10IOWorkLoop14addEventSourceEP13IOEventSource
__ZN9IOService22powerDomainDidChangeToEmP17IOPowerConnection
_buf_invalidateblks
__ZN18IORegistryIterator10superClassE
_ml_set_interrupts_enabled
_soisdisconnected
_VNOP_GETXATTR
_mbuf_copydata
__ZN9IODTNVRAM18validateOWChecksumEPh
_gIOKernelConfigTables
__ZN5OSSet12removeObjectEPK15OSMetaClassBase
_ubc_setcred
_sonewconn
_gIOGeneralInterest
__ZN17IOPowerConnectionC2Ev
__ZN13IOEventSource19signalWorkAvailableEv
__ZN24IOCPUInterruptController34_RESERVEDIOCPUInterruptController3Ev
__ZN12OSDictionary10superClassE
__ZNK15IORegistryEntry19serializePropertiesEP11OSSerialize
__ZN12IOUserClient12initWithTaskEP4taskPvm
__ZN10IOMachPort20makeSendRightForTaskEP4taskP8OSObjectj
_vnode_isinuse
__ZN21IOSubMemoryDescriptor10gMetaClassE
_mach_msg_send_from_kernel
__ZTV21IOInterruptController
_lck_rw_lock
_mach_msg_rpc_from_kernel_proper
__ZN9IOService17getAggressivenessEmPm
__ZN16IORangeAllocator9MetaClassC1Ev
_lck_spin_unlock
_mbuf_adj
__ZN8IOMapper19_RESERVEDIOMapper12Ev
__ZN18IODTPlatformExpert28_RESERVEDIODTPlatformExpert3Ev
_mbuf_freecluster
__ZN19IOPMPowerSourceList9MetaClassC2Ev
_lck_rw_lock_shared
_sysctl_rdstruct
_gIOCommandPoolSizeKey
_IORecursiveLockGetMachLock
__ZN9IOService17registerInterruptEiP8OSObjectPFvS1_PvPS_iES2_
__ZN18IOTimerEventSource6enableEv
__ZN29IOInterleavedMemoryDescriptor16initWithCapacityEm11IODirection
__ZN11OSSerialize4freeEv
__ZN16IODMAEventSource18completeDMACommandEP12IODMACommand
__ZN8OSString4freeEv
_nop_remove
_buf_setupl
__ZN14IODeviceMemory12withSubRangeEPS_mm
__ZN12IORootParent9MetaClassC2Ev
_vnop_kqfilt_remove_desc
__ZN18IOMemoryDescriptor10addMappingEP11IOMemoryMap
__ZN9IOService12nameMatchingEPKcP12OSDictionary
_ldisc_register
__ZTV17IOPowerConnection
__ZN25IOGeneralMemoryDescriptor18getPhysicalSegmentEmPmm
__ZN20OSCollectionIterator9MetaClassC2Ev
__ZN15OSMetaClassBase25_RESERVEDOSMetaClassBase4Ev
__ZN18IOTimerEventSource10wakeAtTimeE12UnsignedWide
_cp_key_store_action
__ZN9IOService7messageEmPS_Pv
__ZNK8IOMapper13getBypassMaskEPy
_nop_mmap
__ZN13IOCommandPool11commandPoolEP9IOServiceP10IOWorkLoopm
__ZN15IORegistryEntry9MetaClassC1Ev
__ZN18IORegistryIteratorC2EPK11OSMetaClass
__ZNK18IOMemoryDescriptor19dmaCommandOperationEmPvj
__ZN12IOUserClient23_RESERVEDIOUserClient15Ev
_ifnet_get_wake_flags
_lck_mtx_sleep
__ZN9IOService13getPMworkloopEv
__ZNK5IOCPU11getPropertyEPK8OSSymbol
_ifnet_stat_increment
__ZN18IOMemoryDescriptor22initWithPhysicalRangesEP15IOPhysicalRangem11IODirectionb
__ZNK12OSDictionary9serializeEP11OSSerialize
__ZN9IOService14tellChangeDownEm
__ZTVN13IOCommandGate9MetaClassE
_mbuf_datastart
__ZN9IODTNVRAMD2Ev
__ZNK8OSString9MetaClass5allocEv
_ubc_getsize
_lck_spin_sleep_deadline
__ZTV9IOCommand
__ZN20OSCollectionIteratorC1Ev
__ZN18IOMemoryDescriptor23initWithPhysicalAddressEmm11IODirection
_sock_getsockname
__ZTV9IODTNVRAM
_putc
__ZN12IOUserClient10superClassE
__ZN8OSObject19_RESERVEDOSObject13Ev
__ZN5OSSet11initWithSetEPKS_j
_thread_notrigger
_vm_map_wire
_ubc_cs_blob_get
__ZN23IOMultiMemoryDescriptor8completeE11IODirection
__ZNK12IORootParent12getMetaClassEv
_proc_getcdhash
_debug_malloc_size
__ZN18IOMemoryDescriptor20getPhysicalSegment64EmPm
_OSMalloc_noblock
_IOFree
_IOLockSleep
__ZN12OSDictionary9metaClassE
__ZN16IOKitDiagnostics10gMetaClassE
__ZN11OSSerializeC2EPK11OSMetaClass
_flush_dcache
__ZN12OSCollectionC1EPK11OSMetaClass
__ZN15IOPMPowerSource5modelEv
__ZN16IOPlatformExpert25getPhysicalRangeAllocatorEv
__ZNK24IOCPUInterruptController12getMetaClassEv
_OSIncrementAtomic
__ZN11OSSerialize20setCapacityIncrementEj
_buf_setdevice
__ZN12IOUserClient15mapClientMemoryEmP4taskmj
__ZTVN15IOPMPowerSource9MetaClassE
__ZN21IOSubMemoryDescriptor8redirectEP4taskb
__ZN9OSBoolean9MetaClassC2Ev
_sock_setsockopt
__ZN12IOPMinformee10initializeEP9IOService
__ZN13IOEventSource12tryCloseGateEv
_file_flags
_sleep
__ZNK18IOTimerEventSource12getMetaClassEv
__ZN11OSSerialize21_RESERVEDOSSerialize3Ev
_spec_strategy
__ZN15IOPMPowerSource16batteryInstalledEv
__ZN9IOService13waitMatchIdleEm
__mh_execute_header
__ZN9IOCommand10gMetaClassE
__ZN10IOMachPortD0Ev
__ZN10IOWorkLoop13_maintRequestEPvS0_S0_S0_
_mbuf_free
__ZN11IODataQueueD2Ev
_vnop_makenamedstream_desc
_pmc_config_set_value
_buf_upl
_IOLockFree
_ifnet_event
_err_allocate
__ZNK12OSDictionary9getObjectEPK8OSSymbol
_buf_setfilter
_pmc_reservation_write
__ZN18IOMemoryDescriptor17getVirtualSegmentEmPm
__ZN8IOPMprotC1EPK11OSMetaClass
_semaphore_signal_all
__ZN16IOPlatformExpert27_RESERVEDIOPlatformExpert10Ev
__ZTVN12OSCollection9MetaClassE
__ZN10IOWorkLoop8openGateEv
__ZN12OSDictionary10gMetaClassE
__ZN19IOPMPowerSourceList11firstInListEv
__ZNK15IORegistryEntry11getPropertyEPK8OSStringPK15IORegistryPlanem
_IODTFreeLoaderInfo
__ZN21IONaturalMemoryCursor10superClassE
_kern_os_malloc_size
__ZN12IOUserClient23releaseNotificationPortEP8ipc_port
_vfs_get_notify_attributes
__ZN12OSOrderedSet14setFirstObjectEPK15OSMetaClassBase
__ZN15IORegistryPlaneC2Ev
_vnode_uncache_credentials
__ZTVN28IOFilterInterruptEventSource9MetaClassE
_vnode_notify
_proc_name
_vfs_context_pid
_net_del_proto
__ZN8OSNumber10superClassE
__ZN15IOPMPowerSource18setAtCriticalLevelEb
__ZN5IOCPU9MetaClassC2Ev
__ZN13IOCommandPool23_RESERVEDIOCommandPool0Ev
__ZN15IODMAController20createControllerNameEm
_sock_listen
_mbuf_copym
_des_ecb_encrypt
__ZN12IODMACommand4freeEv
__ZNK8OSString16getCStringNoCopyEv
_vnode_ismount
__ZN16IOPlatformExpert26_RESERVEDIOPlatformExpert9Ev
__ZN29IOInterleavedMemoryDescriptorC1EPK11OSMetaClass
_osrelease
__ZNK9OSBoolean9isEqualToEPK15OSMetaClassBase
__ZN20RootDomainUserClient15setPreventativeEmm
__ZN10OSIteratorD2Ev
__ZN17IOPowerConnection9MetaClassC1Ev
__ZN16IORangeAllocator28setFragmentCapacityIncrementEm
__ZNK16IORangeAllocator9serializeEP11OSSerialize
_deflateReset
__ZN10IOMachPortC2Ev
_vfs_unmountbyfsid
_strprefix
__ZN9IOService5closeEPS_m
_OSBacktrace
_vfs_init_io_attributes
_IODiskMatching
_sflt_attach
__ZN12OSSymbolPool4initEv
__ZN9IOCommand4initEv
__ZN11OSMetaClassD0Ev
__FREE_ZONE
__ZN8OSString21initWithCStringNoCopyEPKc
__ZN13IOCommandPool10gMetaClassE
_soreserve
__ZN9IOService16allowPowerChangeEm
_mach_gss_init_sec_context
__ZN16IOPlatformExpert26_RESERVEDIOPlatformExpert6Ev
_ifnet_mtu
_IORecursiveLockWakeup
_vfs_context_rele
_sysctl_handle_string
__ZN12IODMACommandC1EPK11OSMetaClass
_ifnet_ioctl
_throttle_info_update
_sock_send
_clock_interval_to_absolutetime_interval
__ZN9IOService16resourceMatchingEPK8OSStringP12OSDictionary
__ZNK11OSMetaClass14reservedCalledEi
_err_symlink
_buf_unmap
__ZN8OSString18_RESERVEDOSString1Ev
_vnop_write_desc
__ZN25IOGeneralMemoryDescriptor7prepareE11IODirection
__ZNK15IORegistryEntry12compareNamesEP8OSObjectPP8OSString
_IORecursiveLockHaveLock
__ZNK11IOResources11getWorkLoopEv
_ovbcopy
__ZN15IORegistryEntry11detachAboveEPK15IORegistryPlane
__ZN15IORegistryEntry26_RESERVEDIORegistryEntry27Ev
__ZN24IOCPUInterruptController9metaClassE
__ZN22IOInterruptEventSource12checkForWorkEv
__ZN16IOPlatformDevice26_RESERVEDIOPlatformDevice0Ev
__ZN20IOLittleMemoryCursor10superClassE
_vfs_unbusy
__ZN28IOFilterInterruptEventSource9MetaClassC2Ev
_vnode_islnk
__ZN28IOFilterInterruptEventSourceC1Ev
__ZN18IOMemoryDescriptor5doMapEP7_vm_mapPjmmm
__ZN9OSBooleanC2Ev
_vprintf
_uio_reset
__ZTVN15IODMAController9MetaClassE
__ZN24IOCPUInterruptController9MetaClassC1Ev
__ZN18_IOServiceNotifier10gMetaClassE
_IOMapperInsertPage
_kauth_filesec_free
__ZN11IOMemoryMap21_RESERVEDIOMemoryMap4Ev
_sock_setpriv
_vnop_inactive_desc
_mbuf_clear_csum_performed
_err_revoke
__ZN13IOEventSource23_RESERVEDIOEventSource1Ev
_ubc_pages_resident
__ZN11OSSerialize21_RESERVEDOSSerialize6Ev
__ZN9IOService14setPowerParentEP17IOPowerConnectionbm
__ZN8OSString19_RESERVEDOSString12Ev
__ZN21IOInterruptController16disableInterruptEP9IOServicei
__ZN18IOTimerEventSourceC2Ev
_dlil_resolve_multi
__ZN22_IOOpenServiceIterator4freeEv
_vnop_pageout_desc
__ZN18IOMemoryDescriptor28_RESERVEDIOMemoryDescriptor8Ev
__ZNK5IOCPU19serializePropertiesEP11OSSerialize
__ZN24IOBufferMemoryDescriptor10gMetaClassE
__ZN20RootDomainUserClient10gMetaClassE
__ZN12IOUserClient15sendAsyncResultEPjiPPvm
__ZN15IORegistryEntry26_RESERVEDIORegistryEntry31Ev
_sodisconnect
_vnop_mmap_desc
__ZNK6OSData11getCapacityEv
__ZN16IODMAEventSource14stopDMACommandEby
__ZN6OSDataC1Ev
__ZN17IOPolledInterface27_RESERVEDIOPolledInterface0Ev
__ZN11IOCatalogue13removeDriversEP12OSDictionaryb
__ZNK20IOLittleMemoryCursor12getMetaClassEv
__ZN24IOBufferMemoryDescriptorC1Ev
_sock_inject_data_in
__ZN9IOService18requireMaxBusStallEm
_vnode_create
_lck_spin_init
_vnode_authattr_new
__ZN13IOCommandPool9MetaClassC1Ev
__ZN24IOBufferMemoryDescriptor10superClassE
__ZNK16IODMAEventSource12getMetaClassEv
_utf8_validatestr
__ZNK15IORegistryEntry11getPropertyEPKcPK15IORegistryPlanem
__ZN15IORegistryEntry14removePropertyEPKc
__ZN10IOWorkLoop20_RESERVEDIOWorkLoop5Ev
_vnop_blockmap_desc
__ZNK15IORegistryEntry12copyPropertyEPK8OSSymbol
_IOMappedWrite16
_cluster_bp_ext
__ZN11IOResourcesC2EPK11OSMetaClass
__ZN8OSString18_RESERVEDOSString8Ev
__ZN15IORegistryEntry14attachToParentEPS_PK15IORegistryPlane
_nop_offtoblk
__ZN9IOCommandD0Ev
__ZN9IOService9metaClassE
_mbuf_leadingspace
__ZNK12OSDictionary12iteratorSizeEv
__ZN16IOPlatformExpert23registerNVRAMControllerEP17IONVRAMController
__ZN15IOPMPowerSource15setManufacturerEP8OSSymbol
__ZN9IOService8finalizeEm
__ZN15IOPMPowerSource13setIsChargingEb
__ZN9IOService13startMatchingEm
__ZN6OSData13initWithBytesEPKvj
_ttysleep
_kauth_authorize_action
_PE_enter_debugger
__ZN9IOService21temporaryPowerClampOnEv
__ZN9IOService27serializedAllowPowerChange2Em
_err_pagein
__ZN10IOWorkLoopC2Ev
__ZN24IOCPUInterruptController16getInterruptTypeEP9IOServiceiPi
__ZN22IOInterruptEventSource32_RESERVEDIOInterruptEventSource5Ev
__ZNK15IORegistryEntry12copyPropertyEPK8OSString
__ZNK15OSMetaClassBase9isEqualToEPKS_
__ZN25IOGeneralMemoryDescriptor10superClassE
_IOFreeAligned
__ZN8OSSymbolC2EPK11OSMetaClass
__ZN15IORegistryEntry17runPropertyActionEPFiP8OSObjectPvS2_S2_S2_ES1_S2_S2_S2_S2_
__ZN17IOSharedDataQueueC2Ev
_PE_get_security_epoch
_buf_bdwrite
__ZN25IOGeneralMemoryDescriptor16getPreparationIDEv
__Z17IOServiceOrderingPK15OSMetaClassBaseS1_Pv
__ZN18IOTimerEventSource16timerEventSourceEP8OSObjectPFvS1_PS_E
__ZN7OSArray9setObjectEPK15OSMetaClassBase
_thread_issignal
_buf_size
_buf_getblk
__ZN25IOGeneralMemoryDescriptorD2Ev
__ZN9IOService20_RESERVEDIOService30Ev
_proc_is_classic
__ZN11IOCatalogue25terminateDriversForModuleEP8OSStringb
__ZN23IOMultiMemoryDescriptor10gMetaClassE
_vnode_clearmountedon
__ZN13IOEventSourceC2EPK11OSMetaClass
__ZN15IORegistryEntry26_RESERVEDIORegistryEntry29Ev
__ZN15IOPMPowerSourceC1Ev
_err_blockmap
__ZN20OSCollectionIteratorD0Ev
__ZN6OSDataC1EPK11OSMetaClass
_inet_domain_mutex
__ZN21IOInterruptController14causeInterruptEP9IOServicei
__ZN11IOCatalogue11findDriversEP9IOServicePl
__ZN11OSMetaClass11postModLoadEPv
__ZNK8IOSyncer9MetaClass5allocEv
_vnop_monitor_desc
__ZTVN12IODMACommand9MetaClassE
__ZN12OSOrderedSet22_RESERVEDOSOrderedSet0Ev
__ZN12OSDictionaryD0Ev
__ZN12IOPMinformeeC2Ev
__ZN15OSMetaClassMetaC1Ev
__ZN8OSStringD2Ev
__ZN22IOInterruptEventSource32_RESERVEDIOInterruptEventSource4Ev
_buf_brelse
_appleClut8
__ZN9IOService12getResourcesEv
__ZN15IODMAControllerD2Ev
__ZN17IONVRAMControllerD1Ev
_kernel_thread_start
__ZN11IOCatalogueC1EPK11OSMetaClass
_PE_i_can_has_debugger
__ZN9IOService18systemWillShutdownEm
_gIOClassKey
__ZN5IOCPU17enableCPUTimeBaseEb
_deflateSetDictionary
__ZNK11OSMetaClass7releaseEi
__ZTVN15IOWatchDogTimer9MetaClassE
__ZN10IOWorkLoop4freeEv
_sock_isconnected
__ZN21IOInterruptController16getInterruptTypeEP9IOServiceiPi
__ZN11IOMemoryMap19getMemoryDescriptorEv
__ZN27IOSharedInterruptControllerD2Ev
__ZNK11OSMetaClass7releaseEv
_Assert
__ZN16IOPlatformExpert14setChipSetTypeEl
_convert_port_entry_to_object
_buf_fsprivate
__ZN18_IOServiceNotifierC2Ev
__ZN17IOPowerConnection21getDesiredDomainStateEv
_cache_purge_negatives
_mig_strncpy
__ZN13IOEventSource23_RESERVEDIOEventSource7Ev
_gIOPowerPlane
_spltty
__ZN23IOMultiMemoryDescriptorC1EPK11OSMetaClass
_ml_get_interrupts_enabled
__ZN11IOMemoryMap17getVirtualAddressEv
__ZNK8OSObject6retainEv
__ZNK21IOInterruptController12getMetaClassEv
_cluster_read
_vnode_vtype
_gIOProviderClassKey
_deflateParams
_PE_cpu_halt
_OSAddAtomic16
__ZN12OSOrderedSet12removeObjectEPK15OSMetaClassBase
_mcl_to_paddr
__ZN16IOPMinformeeList14removeFromListEP9IOService
_mbuf_tag_allocate
__ZNK27IOSharedInterruptController9MetaClass5allocEv
_proc_issignal
__ZN12OSCollection10superClassE
_strlcat
_sbuf_delete
_sysctl__net_children
_IOFreeContiguous
_gIOAppPowerStateInterest
__ZNK5OSSet11getCapacityEv
__ZNK12OSDictionary9isEqualToEPKS_
_deflateInit_
__ZN10IOMachPortC2EPK11OSMetaClass
_mbuf_get_mlen
__ZN12OSOrderedSet9MetaClassC2Ev
_knote_detach
__ZNK6OSData12getMetaClassEv
__ZN11IOCatalogue13startMatchingEP12OSDictionary
__ZN6OSData16_RESERVEDOSData4Ev
__ZN7OSArray15flushCollectionEv
__ZN18IODTPlatformExpertD0Ev
__ZN18IORegistryIterator7isValidEv
__ZNK21IOSubMemoryDescriptor12getMetaClassEv
_IOLockWakeup
_sploff
__ZN14IOMemoryCursor21initWithSpecificationEPFvNS_15PhysicalSegmentEPvmEmmm
__ZN17IOSharedDataQueue4freeEv
_knote_attach
__ZNK18IODTPlatformExpert14compareNubNameEPK9IOServiceP8OSStringPS4_
__ZN15IOWatchDogTimer25_RESERVEDIOWatchDogTimer0Ev
_vfs_name
__ZN9IOService14actionFinalizeEPS_m
__ZN12IOPMinformeeD2Ev
__ZN17IONVRAMController10superClassE
_sockopt_valsize
__ZN14IOPMrootDomain14tellChangeDownEm
__ZN8OSString18_RESERVEDOSString7Ev
_ifnet_get_address_list
_assert_wait_deadline
__ZN18IORegistryIterator9MetaClassC1Ev
_kauth_register_scope
__ZNK11IOResources9MetaClass5allocEv
_ttyselect
_VNOP_IOCTL
__ZN9IOServiceD2Ev
__ZN9IOCommand9MetaClassC1Ev
__ZN7OSArray9MetaClassC2Ev
__ZN18IODTPlatformExpert13savePanicInfoEPhm
__ZN9IOService23requestPowerDomainStateEmP17IOPowerConnectionm
_lck_spin_lock
__ZN14IOPMrootDomain13restartSystemEv
__ZN9IOService6detachEPS_
__ZTV18IOUserNotification
__ZN12IODMACommand23_RESERVEDIODMACommand15Ev
__ZN20OSCollectionIterator10gMetaClassE
_thread_call_enter_delayed
__ZN12OSDictionary22_RESERVEDOSDictionary0Ev
__ZN10IOMachPort11dictForTypeEj
_OSKextCancelRequest
_IOLockInitWithState
__ZN12IOUserClient4initEP12OSDictionary
__ZN8OSNumber18_RESERVEDOSNumber1Ev
__ZN8IOMapperC2EPK11OSMetaClass
_serial_init
_vsscanf
__ZN16IORangeAllocator12getFreeCountEv
_ubc_msync
_uiomove
__ZN9IOService20_RESERVEDIOService17Ev
_serial_getc
__ZN18IOTimerEventSource12wakeAtTimeUSEm
__ZNK8OSSymbol9isEqualToEPKc
__ZN13IOCommandGate6enableEv
__ZNK11OSMetaClass9serializeEP11OSSerialize
__ZNK24IOCPUInterruptController9MetaClass5allocEv
__ZN11OSSerialize14ensureCapacityEj
__ZTV20IOLittleMemoryCursor
__ZN12OSCollection10setOptionsEjjPv
__ZN9IOService21unregisterAllInterestEv
_clock_get_system_microtime
_microtime
__ZNK8OSNumber13numberOfBytesEv
__ZN7OSArray10superClassE
__ZN5IOCPU15_RESERVEDIOCPU0Ev
__ZNK20RootDomainUserClient12getMetaClassEv
__ZN13IOEventSource9setActionEPFvP8OSObjectzE
_cluster_push
_spec_close
__ZN9OSBoolean9metaClassE
_ifnet_add_multicast
__ZN17IOSharedDataQueue27_RESERVEDIOSharedDataQueue0Ev
__ZN17IOPolledInterface28_RESERVEDIOPolledInterface10Ev
__ZTVN18IOTimerEventSource9MetaClassE
__ZN12OSOrderedSet16initWithCapacityEjPFlPK15OSMetaClassBaseS2_PvES3_
__ZN9IOService20_RESERVEDIOService11Ev
__ZN15IORegistryEntry11setPropertyEPKcS1_
__ZN8IOMapper11NewARTTableEmPPvPj
__ZN15IORegistryEntry10initializeEv
__ZN16IOPlatformExpert10gMetaClassE
__ZN15IORegistryPlaneC2EPK11OSMetaClass
__ZN15IOPMPowerSource10isChargingEv
__ZN22IOInterruptEventSource9metaClassE
__ZNK7OSArray9isEqualToEPKS_
_buf_device
__ZN12OSSymbolPoolD2Ev
_arp_lookup_ip
__ZN13IOCommandPool9metaClassE
_ifnet_clone_detach
_PE_parse_boot_argn
__ZN6OSData4freeEv
_gIODTInterruptCellKey
_ttyclose
__ZN13IOEventSource6enableEv
__ZN22IOInterruptEventSourceD0Ev
_vnop_mknod_desc
__ZN8OSSymbol9metaClassE
__ZNK15IORegistryEntry8isParentEPS_PK15IORegistryPlaneb
__ZN5IOCPU10superClassE
_vnop_reclaim_desc
__ZN18IODTPlatformExpert15getNubResourcesEP9IOService
_PEHaltRestart
__ZTV14IOPMrootDomain
__ZN9IOService20_RESERVEDIOService22Ev
_OSReportWithBacktrace
__ZNK8OSString9getLengthEv
__ZN15IOPMPowerSource16setTimeRemainingEi
__ZN25IOGeneralMemoryDescriptor11wireVirtualE11IODirection
__ZN21IOSubMemoryDescriptor18getPhysicalSegmentEmPmm
__ZN18IOMemoryDescriptor10gMetaClassE
__ZN27IOSharedInterruptController37_RESERVEDIOSharedInterruptController1Ev
__ZN24IOBufferMemoryDescriptorD0Ev
_ifnet_set_wake_flags
__ZN15IOConditionLock8lockWhenEi
__ZN21IOSubMemoryDescriptorC1EPK11OSMetaClass
__ZNK11IOCatalogue14isModuleLoadedEPKc
_ifnet_attach
__ZN14IOPMrootDomain13setPropertiesEP8OSObject
_timevalfix
_gIODTCompatibleKey
__ZN22IOInterruptEventSource32_RESERVEDIOInterruptEventSource0Ev
__ZNK12IODMACommand19getMemoryDescriptorEv
_vnop_rmdir_desc
_SHA1Init
__ZN24IOBufferMemoryDescriptor35_RESERVEDIOBufferMemoryDescriptor15Ev
_aes_encrypt_cbc
__ZN26_IOServiceInterestNotifier10superClassE
_sysctl__vfs_generic_children
__ZN12IODMACommand22_RESERVEDIODMACommand5Ev
__ZN11IOCatalogue10addDriversEP7OSArrayb
__ZN24IOBufferMemoryDescriptor15initWithOptionsEmjjP4task
__ZN16IODMAEventSourceD2Ev
_pmc_config_set_interrupt_threshold
__ZN10IONotifier9MetaClassC2Ev
__ZN9OSBooleanC2EPK11OSMetaClass
__ZN15IORegistryPlane10superClassE
_OSKernelStackRemaining
_buf_free
_nop_symlink
__ZN9IOService18matchPropertyTableEP12OSDictionaryPl
__ZNK25IOGeneralMemoryDescriptor19dmaCommandOperationEmPvj
_page_shift
__ZN15IOPMPowerSource22setLegacyIOBatteryInfoEP12OSDictionary
__ZN18IOMemoryDescriptor29_RESERVEDIOMemoryDescriptor15Ev
__ZN14IOPMrootDomain17getSleepSupportedEv
_ifnet_list_free
__ZN8OSNumber18_RESERVEDOSNumber6Ev
__ZN11OSMetaClassdlEPvm
__ZN9IOService15terminateClientEPS_m
_gIONameKey
_cluster_copy_ubc_data
__ZN18IOMemoryDescriptor16performOperationEmmm
_deflateCopy
__ZN8IOMapper10iovmInsertEjmPjm
_mbuf_align_32
__ZN12OSOrderedSetC1EPK11OSMetaClass
_buf_clearflags
_gIOResourceMatchKey
_vnode_isswap
_mach_make_memory_entry_64
_kauth_cred_guid2uid
_sysctl_register_oid
__ZN28IOFilterInterruptEventSource38_RESERVEDIOFilterInterruptEventSource6Ev
__ZN23IOMultiMemoryDescriptor7prepareE11IODirection
__ZN11OSMetaClassC2EPKcPKS_j
_mbuf_pkthdr_setheader
_err_create
_vfs_context_suser
__ZN18IODTPlatformExpert9MetaClassC1Ev
__ZN15IORegistryEntry13attachToChildEPS_PK15IORegistryPlane
__ZN11IOMemoryMap21_RESERVEDIOMemoryMap1Ev
__ZN13_IOServiceJobD2Ev
__ZN8OSString9metaClassE
__ZN11IOResourcesD0Ev
__ZN12IODMACommandC1Ev
_vnode_isrecycled
_ev_unlock
__ZN11IOMemoryMap10getAddressEv
__ZN11IOMemoryMapC1Ev
_vnop_kqfilt_add_desc
__ZN15OSMetaClassMetaC2Ev
__ZTVN13IOCommandPool9MetaClassE
_sbflush
__ZTV15IOPMPowerSource
__ZN11OSMetaClass21checkMetaCastWithNameEPKcPK15OSMetaClassBase
__ZNK11OSMetaClass14getRetainCountEv
__ZN11OSMetaClass9metaClassE
__ZNK14IOPMrootDomain9MetaClass5allocEv
__ZN16IOPlatformExpert9metaClassE
_gIOPlatformQuiesceActionKey
__ZN15IORegistryEntry11setPropertyEPK8OSSymbolP8OSObject
__ZN16IOPlatformExpert15setGMTTimeOfDayEl
_OSTestAndSet
_buf_setdrvdata
__ZN18IOMemoryDescriptor29_RESERVEDIOMemoryDescriptor13Ev
__ZN8IOSyncerC1Ev
__ZN8IOMapper18_RESERVEDIOMapper7Ev
_pru_abort_notsupp
_ubc_blktooff
_vnop_whiteout_desc
_IORecursiveLockSleepDeadline
_sysctl__sysctl_children
_buf_biowait
__ZNK9IOService9MetaClass5allocEv
_memcpy
__ZN9OSBoolean19_RESERVEDOSBoolean6Ev
__ZN18IODTPlatformExpert28_RESERVEDIODTPlatformExpert7Ev
__ZN7OSArray17_RESERVEDOSArray6Ev
_sock_getsockopt
_ttioctl
__ZN9IOService15lookupInterruptEibPP21IOInterruptController
_vnode_setattr
__ZN8OSObject4freeEv
__ZN24IOBufferMemoryDescriptor34_RESERVEDIOBufferMemoryDescriptor8Ev
__ZN8OSNumberC1Ev
__ZN5IOCPU11getCPUGroupEv
__ZN14IOPMrootDomainC1Ev
__ZN9IOService15addNotificationEPK8OSSymbolP12OSDictionaryPFbPvS5_PS_ES5_S5_l
__ZN12IOUserClient23_RESERVEDIOUserClient11Ev
__ZN12IODMACommand23_RESERVEDIODMACommand10Ev
__ZN18IOMemoryDescriptor18getPhysicalSegmentEmPm
__ZN15IORegistryEntry18getRegistryEntryIDEv
_gIODeviceMemoryKey
__ZN18IOTimerEventSourceD0Ev
__ZNK6OSData9MetaClass5allocEv
__ZN16IOPlatformExpert14getMachineTypeEv
__ZN13IOCommandGate12commandSleepEPv12UnsignedWidem
_vnode_authattr
_vnode_startwrite
__ZNK7OSArray24getNextObjectForIteratorEPvPP8OSObject
_err_inactive
__ZN15IORegistryEntry26_RESERVEDIORegistryEntry10Ev
_msleep
__ZTVN11IOResources9MetaClassE
_pmc_reservation_read
__ZN15IOPMPowerSource13setPSPropertyEPK8OSSymbolP8OSObject
__ZN5OSSet10gMetaClassE
_vnop_pagein_desc
__ZN12IODMACommand9MetaClassC2Ev
_ffs
__ZN7OSArray17_RESERVEDOSArray4Ev
__ZN8IOMapper19iovmAllocDMACommandEP12IODMACommandm
_file_vnode_withvid
_err_searchfs
__ZN13IOCommandGate23_RESERVEDIOCommandGate4Ev
_mbuf_clear_csum_requested
__ZN18IOTimerEventSource10wakeAtTimeEmm
__ZTV12OSDictionary
__ZN17IOSharedDataQueue10gMetaClassE
__ZN18IOMemoryDescriptor9MetaClassC1Ev
_ubc_upl_commit
__ZN9OSBoolean10initializeEv
_pmc_reservation_start
__ZN11OSMetaClass21_RESERVEDOSMetaClass7Ev
_IOPrintPlane
_vnop_readlink_desc
__ZN17IOSharedDataQueue27_RESERVEDIOSharedDataQueue5Ev
__ZN19IOPMPowerSourceList9addToListEP15IOPMPowerSource
__ZN15IOWatchDogTimer9MetaClassC2Ev
__ZN20IOLittleMemoryCursorC1Ev
_vnode_isfifo
__ZN11IOCatalogue11findDriversEP12OSDictionaryPl
__ZN18IOMemoryDescriptor7doUnmapEP7_vm_mapjm
_sockopt_name
_nop_pagein
_wakeup_one
_sysctl__debug_children
__ZNK10IONotifier12getMetaClassEv
__ZN11IOMemoryMap13getMapOptionsEv
__ZN22_IOOpenServiceIteratorC2Ev
_ctl_getenqueuespace
_ml_at_interrupt_context
_sysctl__kern_children
__ZN16IOPMinformeeList9MetaClassC1Ev
__ZN9IOService26temperatureCriticalForZoneEPS_
__ZN18_IOServiceNotifier4waitEv
_pmap_find_phys
_mbuf_set_csum_requested
__ZTV11IOCatalogue
__ZN11OSMetaClass20getMetaClassWithNameEPK8OSSymbol
_semaphore_signal
__ZN12IODMACommand24prepareWithSpecificationEPFbPS_NS_9Segment64EPvmEhyNS_14MappingOptionsEymP8IOMapperyybb
_vn_rdwr
__ZN5OSSetC2Ev
__ZN14IOPMrootDomain27registerPMSettingControllerEPPK8OSSymbolPFiP8OSObjectS2_S5_mES5_mPS5_
__ZN8OSNumber4freeEv
__ZN12IOUserClient19setAsyncReference64EPyP8ipc_portjy
__ZN5IOCPU9MetaClassC1Ev
__ZNK12OSOrderedSet12initIteratorEPv
_ml_processor_register
__ZN18IOMemoryDescriptor10withRangesEP14IOVirtualRangem11IODirectionP4taskb
__ZN15IOPMPowerSource14setAtWarnLevelEb
__ZN24IOCPUInterruptController25setCPUInterruptPropertiesEP9IOService
__ZN21IOInterruptController9MetaClassC1Ev
__ZN24IOBufferMemoryDescriptor12setDirectionE11IODirection
_vnode_hasdirtyblks
__ZN14IOMemoryCursorC2EPK11OSMetaClass
__ZN14IOPMrootDomain18changePowerStateToEm
__ZN9IOService20_RESERVEDIOService12Ev
_ubc_upl_abort
__ZN24IOCPUInterruptController10gMetaClassE
__ZN9IOService10adjustBusyEl
_ttyflush
_pmc_reserve_thread
__ZN24IOCPUInterruptControllerC2EPK11OSMetaClass
__ZN28IOFilterInterruptEventSource38_RESERVEDIOFilterInterruptEventSource7Ev
__ZN9IOService9terminateEm
__ZTV8OSString
__ZN10IOWorkLoop10superClassE
__ZN16IOPlatformExpert9createNubEP12OSDictionary
__ZN25IOGeneralMemoryDescriptor15initWithOptionsEPvmmP4taskmP8IOMapper
_lck_rw_alloc_init
__ZN18IODTPlatformExpert10createNubsEP9IOServiceP10OSIterator
__ZN11IODataQueueD0Ev
__ZN16IOPlatformExpert27registerInterruptControllerEP8OSSymbolP21IOInterruptController
_buf_dirtyoff
__ZN18IODTPlatformExpert28_RESERVEDIODTPlatformExpert1Ev
__ZN6OSDataD2Ev
_pmc_get_accessible_core_list
_kauth_cred_create
_mig_put_reply_port
__ZN9IOService27maxCapabilityForDomainStateEm
__Z16IODTFindSlotNameP15IORegistryEntrym
_IOBSDRegistryEntryGetData
__ZN8IOMapper9MetaClassC1Ev
__ZN17IOBigMemoryCursorD0Ev
__ZN17IOSharedDataQueueC1EPK11OSMetaClass
_ipflow_fastforward
_IOSizeToAlignment
_lck_grp_attr_alloc_init
_kauth_cred_uid2ntsid
__ZN27IOSharedInterruptController9MetaClassC1Ev
__ZN11OSSerialize9MetaClassC1Ev
__ZN8IOMapper19_RESERVEDIOMapper14Ev
__ZN9IOService20callPlatformFunctionEPKcbPvS2_S2_S2_
__ZN21IOSubMemoryDescriptor7prepareE11IODirection
__ZTVN10IOWorkLoop9MetaClassE
__ZN15IORegistryEntry15getRegistryRootEv
_IOLibInit
__ZN18IOMemoryDescriptor13removeMappingEP11IOMemoryMap
_splsched
__ZN18IOTimerEventSource28_RESERVEDIOTimerEventSource6Ev
__ZN5OSSet15_RESERVEDOSSet0Ev
__ZN12OSDictionary9setObjectEPK8OSStringPK15OSMetaClassBase
_fifo_inactive
_sock_ioctl
_vnode_setnocache
__ZN8IOMapperC1EPK11OSMetaClass
__ZN10IOWorkLoopC2EPK11OSMetaClass
__ZN18IOMemoryDescriptor6getTagEv
__ZNK16IORangeAllocator9MetaClass5allocEv
__ZN14IOPMrootDomain11sleepSystemEv
__ZN11OSSerialize9addStringEPKc
__ZTV5IOCPU
__ZN9IOService16applyToProvidersEPFvPS_PvES1_
__ZNK9OSBoolean7isFalseEv
_sock_release
_vnode_setmultipath
__ZN17IOBigMemoryCursor10superClassE
_lck_mtx_unlock
__ZN8IOMapper9metaClassE
__ZN7OSArray10gMetaClassE
__ZN29IOInterleavedMemoryDescriptorC2Ev
__ZNK11OSMetaClass16getInstanceCountEv
__ZN24IOBufferMemoryDescriptor34_RESERVEDIOBufferMemoryDescriptor2Ev
__ZN18IOUserNotificationC1EPK11OSMetaClass
__ZN16IOPlatformExpertD0Ev
__ZN10IOWorkLoop19signalWorkAvailableEv
__ZN13IOEventSource10superClassE
__ZTVN16IORangeAllocator9MetaClassE
__ZTVN18IOMemoryDescriptor9MetaClassE
_ifnet_family
_netboot_root
__ZN15IORegistryEntry26_RESERVEDIORegistryEntry23Ev
_mbuf_pkthdr_setrcvif
__ZN17IOPowerConnection25setPreventSystemSleepFlagEm
__ZN12IORootParent11sleepSystemEv
__ZN27IOSharedInterruptController37_RESERVEDIOSharedInterruptController2Ev
__ZN13IOCommandPool23_RESERVEDIOCommandPool5Ev
__ZN7OSArrayD2Ev
__ZTV15IOWatchDogTimer
__ZN21IONaturalMemoryCursor13outputSegmentEN14IOMemoryCursor15PhysicalSegmentEPvm
__ZN16IOPMinformeeListC1EPK11OSMetaClass
__ZN9IOService17applyToInterestedEPK8OSSymbolPFvP8OSObjectPvES5_
__ZN12IOPMinformee9MetaClassC1Ev
__ZNK11OSSerialize4textEv
__ZN14IOPMrootDomain27displayWranglerNotificationEPvS0_mP9IOServiceS0_j
_acknowledgeSleepWakeNotification
__ZNK15IORegistryEntry16getPropertyTableEv
__ZN26_IOServiceInterestNotifierC2EPK11OSMetaClass
_vnode_isnoreadahead
_utf8_encodestr
__ZN17IOSharedDataQueue9MetaClassC1Ev
__ZN12OSSymbolPool12removeSymbolEP8OSSymbol
_mach_absolute_time
_ifnet_free_address_list
__ZN8OSString18_RESERVEDOSString5Ev
__ZN15IORegistryEntry11setPropertyEPK8OSStringP8OSObject
__ZN21IOInterruptController17vectorCanBeSharedElP17IOInterruptVector
__ZNK8OSSymbol9MetaClass5allocEv
_ifaddr_address_family
_vnop_listxattr_desc
_post_sys_powersource
_boot
_vm_protect
_cp_register_wraps
__ZN15IORegistryEntry26_RESERVEDIORegistryEntry15Ev
_kdp_unregister_send_receive
__ZN6OSData15withBytesNoCopyEPvj
_buf_error
__ZTV15OSMetaClassBase
__ZNK12OSSymbolPool10findSymbolEPKc
_PE_save_buffer_to_vram
__ZTV17IOBigMemoryCursor
_task_resume
__ZNK5OSSet9isEqualToEPK15OSMetaClassBase
__ZN16IOPlatformExpert14setMachineTypeEl
__ZN21IOInterruptController31_RESERVEDIOInterruptController4Ev
_gIOFirstMatchNotification
__ZN13IOCommandGate23_RESERVEDIOCommandGate1Ev
__ZN25IOGeneralMemoryDescriptor15initWithAddressEPvm11IODirection
_buf_meta_bread
_fubyte
__ZN12OSOrderedSet14copyCollectionEP12OSDictionary
_IOFindBSDRoot
__ZTV10IONotifier
_clock_interval_to_deadline
_pru_rcvoob_notsupp
__ZN12IODMACommand10gMetaClassE
__ZN16IORangeAllocator13allocateRangeEmm
__ZNK12IODMACommand12getMetaClassEv
__ZN29IOInterleavedMemoryDescriptor19setMemoryDescriptorEP18IOMemoryDescriptormm
__ZN12OSCollection22_RESERVEDOSCollection2Ev
_vnode_clearfsnode
__ZN16IOPlatformExpert9MetaClassC1Ev
__ZN10IOMachPort13portForObjectEP8OSObjectj
__ZN8IOMapper18_RESERVEDIOMapper3Ev
_gIOBusyInterest
_cluster_pagein
__ZN15IOPMPowerSource7voltageEv
_lck_grp_free
_ifnet_llbroadcast_copy_bytes
__ZN8OSNumber9metaClassE
__ZNK11IOMemoryMap9MetaClass5allocEv
__ZN18IOUserNotification9MetaClassC1Ev
__ZN15IORegistryPlane10gMetaClassE
_uio_addiov
__ZN12OSDictionaryC1EPK11OSMetaClass
__ZN21IOSubMemoryDescriptorC2EPK11OSMetaClass
__ZN8OSObject10gMetaClassE
__ZN22IOInterruptEventSource10gMetaClassE
__ZN15IORegistryEntry9makePlaneEPKc
__ZN15OSMetaClassBase25_RESERVEDOSMetaClassBase3Ev
_err_close
__ZN9IOService12requestProbeEm
__ZNK11IOMemoryMap12getMetaClassEv
__ZN10OSIteratorD0Ev
__ZN12OSSerializer9MetaClassC1Ev
_enodev_strat
_cluster_write
__ZN28IOFilterInterruptEventSourceC2EPK11OSMetaClass
_buf_setdirtyend
_sha1_hardware_hook
_IORecursiveLockFree
__ZN22IOInterruptEventSourceC2Ev
_vm_region
__ZN15IORegistryEntry21getChildFromComponentEPPKcPK15IORegistryPlane
__ZN13IOCommandGateC1EPK11OSMetaClass
__ZN16IOKitDiagnostics9MetaClassC2Ev
__ZTVN9IOCommand9MetaClassE
_err_pathconf
__ZN5OSSet9MetaClassC1Ev
__ZN15IORegistryEntry11setLocationEPKcPK15IORegistryPlane
_sysctl_register_all
_ifnet_detach_protocol
__ZN12IOUserClient4freeEv
__ZN15IOPMPowerSource6serialEv
__ZN8OSObject9MetaClassC1Ev
_buf_fromcache
__ZN15IOPMPowerSource13setCycleCountEj
__ZN15IOWatchDogTimerD2Ev
__ZN11OSSerialize21_RESERVEDOSSerialize2Ev
__ZN16IORangeAllocator9metaClassE
_IOMappedWrite32
_lck_rw_unlock_exclusive
_buf_clear
_gIOMatchCategoryKey
__ZNK9OSBoolean6isTrueEv
__ZNK15IORegistryEntry21getParentSetReferenceEPK15IORegistryPlane
__ZN27IOSharedInterruptController19unregisterInterruptEP9IOServicei
_lck_rw_unlock_shared
__ZN13IOCommandGateC1Ev
_tty_lock
__ZN15IORegistryEntry26_RESERVEDIORegistryEntry21Ev
_panic
__ZN15IOPMPowerSource11setLocationEi
__ZN8OSString18_RESERVEDOSString3Ev
__ZN12OSCollectionD2Ev
__Z20IODTMakeNVDescriptorP15IORegistryEntryP17IONVRAMDescriptor
__Z17IODeviceTreeAllocPv
_kern_os_free
_uio_curriovbase
_proc_pidversion
__ZNK17IOBigMemoryCursor12getMetaClassEv
_thread_block
__ZN19IOPMPowerSourceList10gMetaClassE
__ZN17IONVRAMController9MetaClassC2Ev
_random
__ZN22IOInterruptEventSource4initEP8OSObjectPFvS1_PS_iEP9IOServicei
_thread_call_cancel
__ZN7OSArray13replaceObjectEjPK15OSMetaClassBase
__ZNK21IOInterruptController9MetaClass5allocEv
__ZN21IONaturalMemoryCursorC1EPK11OSMetaClass
_lck_mtx_destroy
_nop_allocate
_thread_policy_set
_kdp_register_callout
__ZN8OSObjectC2Ev
__ZNK11IODataQueue9MetaClass5allocEv
__ZN19IOPMPowerSourceListC2Ev
_IOTrySpinLock
_sysctl_handle_opaque
__ZN5OSSet15_RESERVEDOSSet5Ev
__ZN16IOPlatformExpert26_RESERVEDIOPlatformExpert8Ev
__ZN9IOService20_RESERVEDIOService29Ev
_lck_spin_free
_OSDecrementAtomic16
_devfs_make_node
__ZN8IOSyncer4initEb
__ZN11OSSerializeD2Ev
__ZN28IOFilterInterruptEventSource9metaClassE
__ZN13IOEventSource23_RESERVEDIOEventSource3Ev
_lck_grp_alloc_init
__ZN16IODMAEventSource15startDMACommandEP12IODMACommand11IODirectionmm
__ZTVN24IOBufferMemoryDescriptor9MetaClassE
_vfs_setauthopaque
__ZTVN12IORootParent9MetaClassE
_pmc_get_name
_kmem_alloc_kobject
_buf_invalblkno
__ZNK25IOGeneralMemoryDescriptor9serializeEP11OSSerialize
_pmc_get_pmc_list
__ZN17IOBigMemoryCursor17withSpecificationEmmm
_thread_terminate
__ZN9IOService16didYouWakeSystemEv
_vfs_devblocksize
__ZN9IOService20_RESERVEDIOService34Ev
__ZN17IOPowerConnection26setParentCurrentPowerFlagsEm
_mig_user_allocate
__ZNK13IOCommandPool12getMetaClassEv
_iflt_attach
__ZN12IODMACommand15genIOVMSegmentsEPFbPS_NS_9Segment64EPvmEPyS2_Pm
__ZTVN10IONotifier9MetaClassE
__ZNK11OSMetaClass19instanceConstructedEv
_suiword
_thread_call_allocate
_pmc_register
__ZNK8OSNumber9MetaClass5allocEv
_fifo_lookup
_hfs_relconverter
__ZN15IOWatchDogTimer10gMetaClassE
__ZN10IOWorkLoopD0Ev
__ZN14IODeviceMemory13arrayFromListEPNS_11InitElementEm
_prf
__ZN9IOCommandD2Ev
_mbuf_tag_free
_vfs_context_is64bit
__ZN8OSString10withStringEPKS_
__ZTV10IOMachPort
_adler32
_gIOPlatformActiveActionKey
_version_variant
__ZNK7OSArray20getCapacityIncrementEv
__ZN18IOUserNotification4initEv
__ZTVN25IOGeneralMemoryDescriptor9MetaClassE
__ZN20IOLittleMemoryCursorC1EPK11OSMetaClass
__ZN9IOService15serviceMatchingEPKcP12OSDictionary
_SHA1Final_r
__ZN26_IOServiceInterestNotifier7disableEv
__ZN9IOService16tellNoChangeDownEm
_ifaddr_withroute
_IOSimpleLockGetMachLock
__ZN6OSData10gMetaClassE
_delay
__ZN22_IOOpenServiceIterator7isValidEv
__ZN5OSSet4freeEv
__ZN22_IOOpenServiceIterator5resetEv
__ZN5IOCPU16getMachProcessorEv
__Z17IODTGetCellCountsP15IORegistryEntryPmS1_
__ZNK8IOMapper12getMetaClassEv
_msleep1
__ZNK11IOCatalogue12getMetaClassEv
__ZN9IOService20_RESERVEDIOService32Ev
_vfs_addname
__ZN8OSNumber18_RESERVEDOSNumber5Ev
_ldisc_deregister
__ZN25IOGeneralMemoryDescriptorD0Ev
__ZNK11IOCatalogue14isModuleLoadedEP12OSDictionary
__ZN25IOGeneralMemoryDescriptor13mapIntoKernelEj
__ZN9IOService20_RESERVEDIOService40Ev
__ZN9IOService14startCandidateEPS_
_buf_dataptr
_is_file_clean
__ZN22IOInterruptEventSource10superClassE
_IOPause
__ZN12IODMACommand12OutputHost64EPS_NS_9Segment64EPvm
__ZN11IOCatalogue15moduleHasLoadedEP8OSString
__ZN25IOGeneralMemoryDescriptor18getPhysicalSegmentEmPm
__ZN18IOUserNotificationD2Ev
_kauth_cred_gid2guid
__ZN11OSMetaClassnwEm
__ZN5OSSet15_RESERVEDOSSet7Ev
__ZN12OSOrderedSet22_RESERVEDOSOrderedSet6Ev
_socantsendmore
__ZN27IOSharedInterruptControllerD0Ev
__ZN21IOSubMemoryDescriptor9MetaClassC2Ev
__ZN28IOFilterInterruptEventSourceD2Ev
__ZN20OSCollectionIterator14withCollectionEPK12OSCollection
__ZNK7OSArray12initIteratorEPv
__ZN22IOInterruptEventSource7disableEv
_OSCompareAndSwapPtr
__ZN9OSBooleanC1EPK11OSMetaClass
__ZN8OSString9MetaClassC1Ev
_PEGetMachineName
__ZN25IOGeneralMemoryDescriptor9MetaClassC1Ev
_sofree
_inflateReset
__ZTVN16IOKitDiagnostics9MetaClassE
__ZNK13_IOServiceJob9MetaClass5allocEv
_cluster_read_ext
__Z18IODTCompareNubNamePK15IORegistryEntryP8OSStringPS3_
__ZN21IOSubMemoryDescriptor11makeMappingEP18IOMemoryDescriptorP4taskjmmm
_vfs_context_issignal
__ZN20RootDomainUserClient11clientCloseEv
_pru_connect_notsupp
_rootvp
_uuid_unparse_upper
__ZN13IOEventSource9sleepGateEPvm
_semaphore_dereference
__ZN18IOTimerEventSource13cancelTimeoutEv
_sosend
__ZN8IOSyncerD2Ev
__ZN9IOService23currentPowerConsumptionEv
__ZN16IOPlatformExpert6attachEP9IOService
__ZNK6OSData9isEqualToEPKvj
__ZN11IOCatalogue25terminateDriversForModuleEPKcb
_sysctl__vm_children
__ZN16IOPlatformExpert26_RESERVEDIOPlatformExpert2Ev
_err_reclaim
_gIODTSharedInterrupts
__ZN19IOPMPowerSourceList13numberOfItemsEv
__ZN24IOBufferMemoryDescriptor9metaClassE
__ZN8OSNumberC2EPK11OSMetaClass
_vm_map_copyout
__ZN9IOService24acknowledgeSetPowerStateEv
__ZNK10IOMachPort9MetaClass5allocEv
_cluster_pageout
__ZN18IOTimerEventSource28_RESERVEDIOTimerEventSource0Ev
__ZN18IODTPlatformExpert5probeEP9IOServicePl
_vnode_ismountedon
__ZN9IOService16propertyMatchingEPK8OSSymbolPK8OSObjectP12OSDictionary
_VNOP_STRATEGY
_vnode_israge
__ZN9IOService22powerStateWillChangeToEmmPS_
_vfs_vnodecovered
_kauth_getuid
_mbuf_freem_list
__ZTVN9IOService9MetaClassE
__ZN27IOSharedInterruptController26getInterruptHandlerAddressEv
__ZN8OSString18_RESERVEDOSString6Ev
__ZTV12IOPMinformee
_vnop_blktooff_desc
__ZN20RootDomainUserClient9MetaClassC1Ev
__ZN9IOService12didTerminateEPS_mPb
__ZN20RootDomainUserClientD2Ev
__ZN15OSMetaClassBaseD2Ev
__ZN9IOService16getCPUSnoopDelayEv
__ZN9IOService9waitQuietEP13mach_timespec
_thread_call_enter
_IOAlignmentToSize
__ZN8IOMapperD2Ev
_kernel_debug
__ZN12IOUserClient14externalMethodEjP25IOExternalMethodArgumentsP24IOExternalMethodDispatchP8OSObjectPv
__ZN13IOEventSource9sleepGateEPv12UnsignedWidem
__ZN18IOTimerEventSource15setTimeoutTicksEm
__ZNK11OSSerialize9MetaClass5allocEv
__ZN10OSIterator20_RESERVEDOSIterator0Ev
__Z13OSUnserializePKcPP8OSString
_itoa
__ZN11IOMemoryMap21_RESERVEDIOMemoryMap5Ev
_cdevsw
_spec_ioctl
_IORecursiveLockAllocWithLockGroup
_clock_get_uptime
__ZNK5OSSet9serializeEP11OSSerialize
__ZN16IODMAEventSource10superClassE
_fifo_pathconf
_vfs_getvfs
__ZN16IOPlatformExpert21RegisterServiceInTreeEP9IOServiceP12OSDictionaryS3_S1_
_IOOFPathMatching
__ZN24IOBufferMemoryDescriptor34_RESERVEDIOBufferMemoryDescriptor7Ev
_IONetworkMatching
_thread_call_free
__ZN11OSMetaClass18allocClassWithNameEPK8OSSymbol
_IORecursiveLockSleep
_buf_setcallback
__ZN13IOCommandPool10getCommandEb
__ZN6OSData12withCapacityEj
_perf_monitor_register
__ZNK13IOEventSource9isEnabledEv
__ZN13IOCommandGate11commandGateEP8OSObjectPFiS1_PvS2_S2_S2_E
_mig_dealloc_reply_port
_thread_call_enter1_delayed
__ZN8OSNumber18_RESERVEDOSNumber3Ev
__ZN9OSBoolean19_RESERVEDOSBoolean2Ev
__ZNK8IOPMprot12getMetaClassEv
__ZTV18IOMemoryDescriptor
_uio_setoffset
_ubc_upl_map
__ZN5IOCPUC2EPK11OSMetaClass
__ZN7OSArray17_RESERVEDOSArray2Ev
_cdevsw_remove
__ZN13IOCommandGateD0Ev
__ZN9IOService19_RESERVEDIOService7Ev
_device_data_action
__ZN24IOBufferMemoryDescriptor35_RESERVEDIOBufferMemoryDescriptor10Ev
__ZN9IOService21getClientWithCategoryEPK8OSSymbol
_net_del_domain
__ZN15IORegistryEntryC2Ev
__ZN26_IOServiceInterestNotifierC1EPK11OSMetaClass
_inflateSyncPoint
__ZN12OSDictionary9MetaClassC1Ev
__Znwm
_aes_encrypt_key256
_vnode_settag
__ZTVN5OSSet9MetaClassE
_gIOParentMatchKey
_sockopt_copyin
_soisconnected
__ZN21IOSubMemoryDescriptorC1Ev
__ZNK8OSNumber12numberOfBitsEv
__ZN14IOMemoryCursorC2Ev
__ZN10OSIterator10gMetaClassE
__ZN8IOPMprotC1Ev
__giDebugLogInternal
_gIOKitDebugKey
__ZN15IORegistryEntry4initEP12OSDictionary
_splvm
__ZN5IOCPU12getCPUNumberEv
_vnode_getname
_vflush
__ZN26_IOServiceInterestNotifier9MetaClassC1Ev
__ZN9IOService19unregisterInterruptEi
__ZN8OSNumber9MetaClassC1Ev
_host_priv_self
__ZN14IOPMrootDomainD2Ev
_gIOResourcesKey
__ZNK11OSMetaClass13checkMetaCastEPK15OSMetaClassBase
__ZN12IODMACommandD2Ev
__ZN12IODMACommand23_RESERVEDIODMACommand14Ev
__ZN24IOCPUInterruptController34_RESERVEDIOCPUInterruptController2Ev
__ZN15IORegistryEntry25_RESERVEDIORegistryEntry7Ev
__ZN12IODMACommand11synchronizeEm
_ifnet_get_link_mib_data
_sysctlbyname
__ZN11OSMetaClass21_RESERVEDOSMetaClass3Ev
__ZN21IOInterruptController10superClassE
__ZN21IONaturalMemoryCursor9MetaClassC2Ev
_vnode_lookup
_ifnet_list_get
_OSBitXorAtomic16
__ZN10IOMachPort22noMoreSendersForObjectEP8OSObjectjPj
_proc_rele
__ZN15IOConditionLockD0Ev
__ZNK15IORegistryEntry7isChildEPS_PK15IORegistryPlaneb
_IOLog
_advisory_read_ext
_uuid_parse
__ZNK11OSMetaClass6retainEv
__ZN16IOPMinformeeList8findItemEP9IOService
_delay_for_interval
__ZN9IOService17setAggressivenessEmm
__ZN17IOSharedDataQueue27_RESERVEDIOSharedDataQueue1Ev
_inet_aton
__ZN12IOUserClient23_RESERVEDIOUserClient13Ev
_lck_spin_sleep
__ZN15IOPMPowerSourceC2EPK11OSMetaClass
_pmc_reservation_stop
__ZN11IOCatalogue15moduleHasLoadedEPKc
__ZN14IOPMrootDomain10gMetaClassE
_IOZeroTvalspec
__ZN24IOBufferMemoryDescriptor11withOptionsEmjj
__ZN11IODataQueue10superClassE
__ZN8IOMapper18_RESERVEDIOMapper8Ev
__ZN16IODMAEventSourceC1Ev
__ZN11IOResources10superClassE
_uio_setresid
__ZN18IOMemoryDescriptor19createMappingInTaskEP4taskjmjj
__ZN24IOBufferMemoryDescriptor12withCapacityEj11IODirectionb
__ZN9IOService15comparePropertyEP12OSDictionaryPK8OSString
__ZN11IOResources9resourcesEv
__ZN18IOMemoryDescriptor12withSubRangeEPS_mm11IODirection
__ZN8OSSymbol18_RESERVEDOSSymbol7Ev
_splpower
__ZN8OSObject18_RESERVEDOSObject4Ev
__ZN11IOCatalogue9MetaClassC2Ev
__ZN15IOPMPowerSource18setCurrentCapacityEj
__ZN11IOMemoryMap21_RESERVEDIOMemoryMap3Ev
_bpf_tap_in
__ZTVN21IONaturalMemoryCursor9MetaClassE
_ifnet_get_tso_mtu
__ZN9IOService20_RESERVEDIOService16Ev
__ZN13IOCommandGate12checkForWorkEv
__ZN12OSDictionary14copyCollectionEPS_
__ZN9IOService12tellChangeUpEm
__ZN17IOPowerConnection23parentCurrentPowerFlagsEv
__ZN16IORangeAllocator12allocElementEm
__ZN11IOResourcesD2Ev
__ZN17IOPowerConnection25setChildHasRequestedPowerEv
__ZN18IOMemoryDescriptor18getPhysicalSegmentEmPmm
_MD5Final
__ZN15IORegistryEntry14removePropertyEPK8OSSymbol
__ZN18IOTimerEventSource12wakeAtTimeMSEm
__ZN18IOTimerEventSource12setTimeoutUSEm
__ZN5OSSet10setOptionsEjjPv
_socantrcvmore
_cluster_zero
_bsd_timeout
__ZNK28IOFilterInterruptEventSource12getMetaClassEv
_err_strategy
__ZN12IOUserClient22_RESERVEDIOUserClient5Ev
_m_get
__ZN27IOSharedInterruptControllerC1Ev
_vfs_isreload
__ZN23IOMultiMemoryDescriptorC1Ev
__ZN9IOService14newTemperatureElPS_
__ZNK15IORegistryEntry9MetaClass5allocEv
__ZN16IORangeAllocator9withRangeEmmmm
_mac_label_set
_kauth_cred_ismember_guid
__ZN16IOPlatformExpert16PMRegisterDeviceEP9IOServiceS1_
_gOFVariables
__ZN9IOService22waitForMatchingServiceEP12OSDictionaryy
__ZN12OSDictionary11withObjectsEPPK8OSObjectPPK8OSSymboljj
__ZTVN17IOSharedDataQueue9MetaClassE
__ZNK12OSDictionary9MetaClass5allocEv
_sscanf
__ZN19IOPMPowerSourceList4freeEv
__ZN13IOEventSource10wakeupGateEPvb
_buf_wcred
__ZN12IOUserClient11clientCloseEv
__ZN8IOSyncer4freeEv
_upl_dirty_page
__ZN15IOPMPowerSource14errorConditionEv
__ZN18IOMemoryDescriptor16withAddressRangeEjjmP4task
_spec_write
__ZN8OSSymbolC2Ev
__ZN15IORegistryEntry10superClassE
_ifaddr_ifnet
__ZN18IODTPlatformExpert28_RESERVEDIODTPlatformExpert5Ev
__ZN12IODMACommand22_RESERVEDIODMACommand4Ev
__ZN24IOBufferMemoryDescriptor11appendBytesEPKvj
__ZN9IODTNVRAM9metaClassE
__ZN12IODMACommand21initWithSpecificationEPFbPS_NS_9Segment64EPvmEhyNS_14MappingOptionsEymP8IOMapperS2_
__ZN17IOBigMemoryCursor9metaClassE
__ZNK22_IOOpenServiceIterator9MetaClass5allocEv
__ZTVN11IOCatalogue9MetaClassE
__ZN11OSMetaClass14modHasInstanceEPKc
__ZN9IOService23powerDomainWillChangeToEmP17IOPowerConnection
__ZN8OSSymbolC1EPK11OSMetaClass
__ZN29IOInterleavedMemoryDescriptorD0Ev
_clfree
__ZN16IORangeAllocatorC2Ev
_nop_rename
_sock_gettclassopt
__ZN9IOService15publishResourceEPKcP8OSObject
__ZN5IOCPU10gMetaClassE
__ZNK16IODMAEventSource9MetaClass5allocEv
__ZN18IOTimerEventSourceD2Ev
_OSAddAtomic64
__ZNK8OSString9isEqualToEPK6OSData
__ZdaPv
__ZN15IOPMPowerSource19legacyIOBatteryInfoEv
_proc_self
__ZN24IOCPUInterruptController15enableInterruptEP9IOServicei
__ZN18IORegistryIteratorC1Ev
_xattr_protected
__ZNK12IODMACommand9MetaClass5allocEv
__ZN9IOService13invokeNotiferEP18_IOServiceNotifier
__ZN9IODTNVRAM17getOWVariableInfoEmPPK8OSSymbolPmS4_
__ZN14IOPMrootDomain10superClassE
__ZN11OSMetaClass15considerUnloadsEv
__ZN19IOPMPowerSourceList10nextInListEP15IOPMPowerSource
_err_whiteout
__ZN13IOCommandGate10superClassE
__ZN25IOGeneralMemoryDescriptor23initWithPhysicalAddressEmm11IODirection
__ZN9IOServiceC2EPK11OSMetaClass
__ZN29IOInterleavedMemoryDescriptorC2EPK11OSMetaClass
_net_init_add
__ZNK5OSSet24getNextObjectForIteratorEPvPP8OSObject
__ZN10IOWorkLoop17removeEventSourceEP13IOEventSource
__ZN8IOSyncerC2EPK11OSMetaClass
__ZN16IODMAEventSource14dmaEventSourceEP8OSObjectP9IOServicePFvS1_PS_P12IODMACommandimES8_m
__ZN8OSObject18_RESERVEDOSObject0Ev
__ZN22IOInterruptEventSource17interruptOccurredEPvP9IOServicei
__ZN17IOSharedDataQueue27_RESERVEDIOSharedDataQueue7Ev
_soreceive
__ZN16IOPMinformeeListC2EPK11OSMetaClass
_vfs_isrdonly
__ZN18IORegistryIterator10iterateAllEv
__ZN8OSStringC1Ev
__ZN18IOTimerEventSource12setTimeoutMSEm
_vnode_isreg
__ZN8OSSymbol18checkForPageUnloadEPvS0_
_err_select
__ZN16IOPlatformDevice10gMetaClassE
__ZN21IONaturalMemoryCursorC2EPK11OSMetaClass
__ZN15IODMAController9MetaClassC1Ev
_vn_default_error
__ZNK15IORegistryEntry24dictionaryWithPropertiesEv
_timevalsub
__ZN18IOUserNotification5resetEv
__ZN15IOWatchDogTimer9metaClassE
_pru_accept_notsupp
__ZNK15IORegistryEntry12getMetaClassEv
__ZTV7OSArray
_OSSynchronizeIO
__ZN12OSCollection22_RESERVEDOSCollection5Ev
__ZN18IOMemoryDescriptor29_RESERVEDIOMemoryDescriptor12Ev
_KUNCGetNotificationID
__ZN11IODataQueue19setNotificationPortEP8ipc_port
_mac_vnop_getxattr
__ZN13IOCommandPool23_RESERVEDIOCommandPool1Ev
_STRDUP
_aes_decrypt_key256
_vnode_vfs64bitready
_vnode_isnamedstream
__ZN18IOMemoryDescriptor11withAddressEjm11IODirectionP4task
__ZN9IOService20_RESERVEDIOService10Ev
__ZN17IOBigMemoryCursorC2Ev
__ZN25IOGeneralMemoryDescriptorC1EPK11OSMetaClass
__ZN13IOCommandGate23_RESERVEDIOCommandGate5Ev
_buf_meta_breadn
__ZNK10IOWorkLoop8onThreadEv
__ZNK15IOConditionLock12getMetaClassEv
__ZN15IORegistryEntry26_RESERVEDIORegistryEntry11Ev
_pru_sockaddr_notsupp
__ZN29IOInterleavedMemoryDescriptor9MetaClassC2Ev
_kauth_cred_gid2ntsid
__ZN24IOBufferMemoryDescriptor20initWithPhysicalMaskEP4taskmjjj
__ZN18IODTPlatformExpert19writeNVRAMPartitionEPK8OSSymbolmPhm
__ZN10IOMachPort10gMetaClassE
__ZN15IOPMPowerSource9MetaClassC1Ev
__ZN12OSDictionary12removeObjectEPK8OSString
_inflateEnd
__ZNK17IOSharedDataQueue9MetaClass5allocEv
_vfs_setextendedsecurity
__ZN17IOSharedDataQueue19getMemoryDescriptorEv
__ZN15IORegistryPlane9MetaClassC2Ev
__ZNK12OSOrderedSet8getCountEv
_OSTestAndClear
__ZNK27IOSharedInterruptController12getMetaClassEv
_deflateInit2_
__ZN17IOPolledInterface27_RESERVEDIOPolledInterface4Ev
__ZN12OSOrderedSetC2Ev
__ZN20IOLittleMemoryCursor9MetaClassC2Ev
_selrecord
__ZN14IOMemoryCursor9MetaClassC1Ev
__ZNK12OSDictionary9getObjectEPKc
__ZN20RootDomainUserClientC2Ev
__ZN11OSMetaClass21_RESERVEDOSMetaClass6Ev
_get_bsdtask_info
__ZN15OSMetaClassBaseC2Ev
_gIOCatalogue
__ZTV25IOGeneralMemoryDescriptor
_err_advlock
__ZN18IOMemoryDescriptor28_RESERVEDIOMemoryDescriptor9Ev
__ZN12OSCollectionC2EPK11OSMetaClass
__ZN15IODMAController5startEP9IOService
__ZN9IOService9MetaClassC1Ev
__ZN15IOPMPowerSource19setBatteryInstalledEb
__ZN12IORootParent10gMetaClassE
__ZN9IOService17currentCapabilityEv
__ZNK9IOService23getOpenProviderIteratorEv
__ZTVN22_IOOpenServiceIterator9MetaClassE
__ZN29IOInterleavedMemoryDescriptor22clearMemoryDescriptorsE11IODirection
_snprintf
_vfs_setfsprivate
__ZN15IORegistryEntry26_RESERVEDIORegistryEntry17Ev
__ZN10IONotifier10superClassE
_gOSObjectTrackThread
_vn_getpath_fsenter
__ZN28IOFilterInterruptEventSource4initEP8OSObjectPFvS1_P22IOInterruptEventSourceiEPFbS1_PS_EP9IOServicei
__ZN10IOWorkLoop12tryCloseGateEv
_cdevsw_add_with_bdev
__ZNK18IOMemoryDescriptor9MetaClass5allocEv
__ZN16IORangeAllocator10superClassE
__ZN18_IOServiceNotifier10superClassE
__ZN15IORegistryEntry25_RESERVEDIORegistryEntry9Ev
__ZN12IORootParentC2Ev
_sockopt_direction
__ZN12IOUserClient26removeMappingForDescriptorEP18IOMemoryDescriptor
__ZN13IOCommandGate9metaClassE
__ZN15IOConditionLockD2Ev
__ZN13_IOServiceJob10superClassE
_vfs_fsremove
__ZNK12OSDictionary9getObjectEPK8OSString
_ifmaddr_ifnet
_kernel_map
_mbuf_split
__ZN17IOBigMemoryCursorD2Ev
__ZN10IOWorkLoop20_RESERVEDIOWorkLoop4Ev
__ZN8IOPMprot10superClassE
_PE_call_timebase_callback
__ZN12OSDictionary20setCapacityIncrementEj
_uuid_unparse_lower
_cluster_pageout_ext
__ZN9IOService15serviceMatchingEPK8OSStringP12OSDictionary
__ZN21IOInterruptControllerC1EPK11OSMetaClass
_enxio
__ZN10IOWorkLoop10wakeupGateEPvb
__ZN7OSArray11withObjectsEPPK8OSObjectjj
__ZN5IOCPUD1Ev
__ZN11OSSerialize10gMetaClassE
__ZN15IOPMPowerSource13getPSPropertyEPK8OSSymbol
__ZN12OSDictionary18initWithDictionaryEPKS_j
__ZN12OSSerializer9metaClassE
_kauth_cred_getgid
__Z17IODTMapInterruptsP15IORegistryEntry
__ZN11IODataQueueC1EPK11OSMetaClass
__ZNK15IORegistryEntry11getPropertyEPK8OSString
__ZN5OSSet9setObjectEPK15OSMetaClassBase
_sock_getpeername
__ZN8OSNumber10gMetaClassE
__ZN9IOService17cancelPowerChangeEm
_bdevsw_add
__ZN14IOPMrootDomain9MetaClassC1Ev
__ZNK10IOWorkLoop22disableAllEventSourcesEv
_semaphore_reference
__ZN17IOPowerConnection19setParentKnowsStateEb
_lck_rw_sleep
_sysctl_rdstring
__ZN13IOCommandPool23_RESERVEDIOCommandPool7Ev
__ZNK11OSMetaClass12getClassSizeEv
__ZN18_IOServiceNotifierD0Ev
_IOLockSleepDeadline
_lck_rw_lock_exclusive
_proc_suser
__ZN9IOService20_RESERVEDIOService44Ev
_uio_getiov
__ZN12IOUserClient30getExternalAsyncMethodForIndexEm
__ZN18IOTimerEventSource9metaClassE
__ZN8OSString19_RESERVEDOSString10Ev
__ZN12OSDictionary12removeObjectEPKc
__ZN11OSSerialize21_RESERVEDOSSerialize4Ev
__ZN13IOCommandGate9runActionEPFiP8OSObjectPvS2_S2_S2_ES2_S2_S2_S2_
__ZN15IORegistryEntry16setPropertyTableEP12OSDictionary
_cons_ops
__ZN8OSNumber4initEPKcj
__ZN24IOCPUInterruptController26initCPUInterruptControllerEi
_proc_ppid
__ZN26_IOServiceInterestNotifier4freeEv
__ZN15IODMAController10gMetaClassE
_IOIteratePageableMaps
_securelevel
__ZTVN12OSSerializer9MetaClassE
_ostype
__ZN5OSSet15_RESERVEDOSSet1Ev
__ZN10IOMachPort9MetaClassC2Ev
__ZN9IOService24getDeviceMemoryWithIndexEj
__ZN21IONaturalMemoryCursor9metaClassE
__ZN15IOConditionLock13withConditionEib
__ZN5OSSet10superClassE
__ZN8IOSyncer10gMetaClassE
__ZN18IOMemoryDescriptorC1EPK11OSMetaClass
__ZNK15IORegistryPlane9MetaClass5allocEv
_db_dumpiojunk
__ZN16IOPlatformExpert12CheckSubTreeEP7OSArrayP9IOServiceS3_P12OSDictionary
_ipf_inject_input
_ifnet_interface_family_find
__ZN24IOCPUInterruptControllerC1EPK11OSMetaClass
__ZN12IORootParentD2Ev
_spec_read
_kauth_proc_label_update
__ZN9IOService31initialPowerStateForDomainStateEm
__ZN11IOMemoryMapC1EPK11OSMetaClass
__ZN12OSCollection9MetaClassC1Ev
__ZN18_IOServiceNotifier9MetaClassC2Ev
_vnop_bwrite_desc
_PE_cpu_start
__ZN14IOMemoryCursor9metaClassE
_IOSimpleLockInit
__ZN28IOFilterInterruptEventSource26filterInterruptEventSourceEP8OSObjectPFvS1_P22IOInterruptEventSourceiEPFbS1_PS_EP9IOServicei
__ZN16IOPlatformExpert26_RESERVEDIOPlatformExpert7Ev
_sysctl_rdquad
__ZNK10IOWorkLoop12getMetaClassEv
_uuid_clear
_nop_write
__ZN17IOBigMemoryCursor21initWithSpecificationEmmm
_sock_inject_data_out
__ZN15IODMAControllerC2EPK11OSMetaClass
_ether_check_multi
__ZN11OSMetaClass21_RESERVEDOSMetaClass1Ev
__ZN18IORegistryIteratorD2Ev
__ZN13IOEventSource23_RESERVEDIOEventSource6Ev
__ZN21IOSubMemoryDescriptor12initSubRangeEP18IOMemoryDescriptormm11IODirection
_ifnet_softc
__ZN8OSObject19_RESERVEDOSObject14Ev
__ZN5IOCPU15_RESERVEDIOCPU4Ev
__doprnt
_lck_rw_unlock
_sysctl_handle_long
__ZN13IOEventSource11setWorkLoopEP10IOWorkLoop
__ZN15IOConditionLock10unlockWithEi
_mac_label_get
__ZN28IOFilterInterruptEventSource23normalInterruptOccurredEPvP9IOServicei
__ZTV12OSCollection
__ZN9OSBoolean19_RESERVEDOSBoolean1Ev
_copyinstr
__ZN9IOService20_RESERVEDIOService36Ev
__ZTV15IOConditionLock
__ZN12OSCollection9metaClassE
__ZTVN8IOMapper9MetaClassE
__ZNK5OSSet9isEqualToEPKS_
__ZN15IOPMPowerSource21externalChargeCapableEv
__ZNK8OSNumber18unsigned32BitValueEv
__ZTV8OSObject
_buf_callback
_flush_dcache64
__ZN18IOTimerEventSource14setTimeoutFuncEv
__ZN14IOPMrootDomain22removePublishedFeatureEj
__ZNK12OSOrderedSet9isEqualToEPK15OSMetaClassBase
__ZN7OSArray9withArrayEPKS_j
_current_thread
_nop_pageout
__ZNK10IOWorkLoop19enableAllInterruptsEv
__ZN13IOEventSource4freeEv
__ZN13IOCommandGate10runCommandEPvS0_S0_S0_
__ZN9IOService20_RESERVEDIOService39Ev
_ifnet_baudrate
__ZN11IOCatalogueC2Ev
__ZNK13IOCommandGate12getMetaClassEv
__ZN11OSSerializeC2Ev
__ZN24IOBufferMemoryDescriptorC1EPK11OSMetaClass
__ZNK11IOCatalogue13serializeDataEmP11OSSerialize
__ZNK5OSSet12iteratorSizeEv
__ZN17IOPolledInterface27_RESERVEDIOPolledInterface1Ev
__ZNK12OSOrderedSet12iteratorSizeEv
__ZN15IODMAControllerD0Ev
__ZN9IOService14applyToClientsEPFvPS_PvES1_
__ZN15IORegistryEntry11dealiasPathEPPKcPK15IORegistryPlane
_ifmaddr_address
__ZN12OSCollectionD0Ev
_semaphore_wait
__ZNK12OSCollection12getMetaClassEv
__ZN6OSData16_RESERVEDOSData3Ev
__ZN12IOUserClientC1EPK11OSMetaClass
_crc32
__ZN12OSOrderedSet14getOrderingRefEv
__ZN10IOWorkLoop10threadMainEv
__ZN16IOKitDiagnosticsC1Ev
__ZN5OSSet5mergeEPKS_
_advisory_read
_vnode_ref
_vnode_vfstypenum
__ZN12IOUserClient9MetaClassC2Ev
__ZNK16IORangeAllocator12getMetaClassEv
__ZNK15IODMAController12getMetaClassEv
__ZN15IOConditionLockC1Ev
_uiomove64
__ZTV12IORootParent
__ZNK11OSSerialize9getLengthEv
__ZN13IOCommandPoolC1EPK11OSMetaClass
__ZN17IOPowerConnection9MetaClassC2Ev
__ZN18IOTimerEventSource4freeEv
__ZN13IOCommandPool16initWithWorkLoopEP10IOWorkLoop
__ZN8OSString17withCStringNoCopyEPKc
__ZN16IOPlatformDevice13matchLocationEP9IOService
_ifnet_set_lladdr
__ZN18IOUserNotification10gMetaClassE
_gIOModuleIdentifierKey
_useracc
__ZN11OSSerialize7addCharEc
__ZN8OSObjectC1Ev
__ZTVN12IOUserClient9MetaClassE
__ZTVN27IOSharedInterruptController9MetaClassE
__ZN16IOPMinformeeList10initializeEv
_IORWLockFree
__ZN18IOUserNotification7isValidEv
_buf_drvdata
__ZN14IOPMrootDomain22changePowerStateToPrivEm
__ZN16IORangeAllocator14deallocElementEm
__ZN12IOUserClient25getExternalMethodForIndexEm
__ZN15IOPMPowerSource24setExternalChargeCapableEb
_in6addr_local
_proc_is64bit
_arp_ifinit
__ZN12IOUserClientD0Ev
__ZN18IOTimerEventSource10setTimeoutEmm
__ZN6OSData16_RESERVEDOSData6Ev
__ZN29IOInterleavedMemoryDescriptor12withCapacityEm11IODirection
__ZN7OSArray17_RESERVEDOSArray1Ev
__ZN17IOPolledInterfaceD2Ev
_gIODTNWInterruptMappingKey
__ZN8OSObject9MetaClassC2Ev
__ZN17IOBigMemoryCursor9MetaClassC2Ev
__ZN22_IOOpenServiceIterator8iteratorEP10OSIteratorPK9IOServiceS4_
__ZN23IOMultiMemoryDescriptorD0Ev
_getsectdatafromheader
__ZNK8OSString9isEqualToEPK15OSMetaClassBase
__ZN12IODMACommand8transferEmyPvy
__ZNK5OSSet8getCountEv
__ZNK15OSMetaClassBase8metaCastEPKc
__ZN9IOService20getDeviceMemoryCountEv
__ZNK29IOInterleavedMemoryDescriptor12getMetaClassEv
_wakeup
_gIONameMatchKey
__ZN18IOTimerEventSource7disableEv
_fuword
__ZN9IODTNVRAM18generateOWChecksumEPh
_err_access
__ZN15IORegistryEntry9detachAllEPK15IORegistryPlane
__ZN22_IOOpenServiceIterator13getNextObjectEv
_vsnprintf
__ZTV21IOSubMemoryDescriptor
__ZTVN10IOMachPort9MetaClassE
_lck_spin_destroy
__ZTVN7OSArray9MetaClassE
__ZNK17IOPowerConnection12getMetaClassEv
__ZN15IOConditionLock9MetaClassC1Ev
__ZN17IOSharedDataQueue11withEntriesEmm
__ZN8IOSyncer9MetaClassC2Ev
__ZN8OSString18_RESERVEDOSString2Ev
_pru_listen_notsupp
__ZN9IOService11setPlatformEP16IOPlatformExpert
__ZN16IOPMinformeeListC1Ev
_sock_bind
__ZN9IOService11getPlatformEv
_gIODTInterruptParentKey
__ZN8OSNumber18_RESERVEDOSNumber7Ev
_mbuf_copy_pkthdr
__ZNK8OSSymbol13taggedReleaseEPKv
__ZN9IOService20_RESERVEDIOService28Ev
__ZNK8OSNumber18unsigned16BitValueEv
__ZN28IOFilterInterruptEventSource15signalInterruptEv
_vnop_offtoblk_desc
_KUNCUserNotificationDisplayFromBundle
__ZN11IOResourcesC1EPK11OSMetaClass
_ifnet_unit
_mbuf_getcluster
__ZN12OSSymbolPoolC2EPKS_
__ZNK12OSOrderedSet13getLastObjectEv
__ZN24IOBufferMemoryDescriptor35_RESERVEDIOBufferMemoryDescriptor14Ev
__ZNK11OSMetaClass13taggedReleaseEPKv
__ZN11IODataQueue9MetaClassC2Ev
_max_mem
__ZN12OSOrderedSet20setCapacityIncrementEj
_bpf_attach
_mbuf_data_to_physical
_read_random
__ZNK5OSSet20getCapacityIncrementEv
__ZN24IOBufferMemoryDescriptor17inTaskWithOptionsEP4taskmjj
_file_socket
__ZN28IOFilterInterruptEventSource38_RESERVEDIOFilterInterruptEventSource2Ev
__ZNK12OSSerializer12getMetaClassEv
_preemption_enabled
__ZN27IOSharedInterruptController17registerInterruptEP9IOServiceiPvPFvS2_S2_S2_iES2_
_kernproc
__ZN27IOSharedInterruptController16disableInterruptEP9IOServicei
__ZN9IOService13getPowerStateEv
_err_readdirattr
_ifnet_set_offload
_kauth_cred_get
_vnop_ioctl_desc
_buf_iterate
_pmc_free_pmc_list
__ZNK12OSOrderedSet6memberEPK15OSMetaClassBase
__ZN18IOUserNotificationD0Ev
_ml_io_map
_err_rename
__ZN6OSData9MetaClassC2Ev
_ifnet_set_stat
__ZN8IOPMprotD2Ev
_processor_start
_gIOInterruptControllersKey
_OSBitAndAtomic16
__ZN6OSData11appendBytesEPKvj
_lck_mtx_lock
__ZN15IOWatchDogTimer25_RESERVEDIOWatchDogTimer1Ev
__ZTV16IORangeAllocator
__Z20IODTMatchNubWithKeysP15IORegistryEntryPKc
__ZN16IORangeAllocator9MetaClassC2Ev
__ZN18IODTPlatformExpert23registerNVRAMControllerEP17IONVRAMController
_ml_get_entropie
_ifnet_get_link_mib_data_length
_spl0
__ZTVN18_IOServiceNotifier9MetaClassE
_set_fsblocksize
__ZN5IOCPUC1EPK11OSMetaClass
_ifnet_stat_increment_in
_lck_grp_attr_setstat
_splx
__ZN12OSCollection10gMetaClassE
__ZN6OSData12initWithDataEPKS_
__ZN15IOPMPowerSource4freeEv
_ifnet_stat
__ZN24IOBufferMemoryDescriptorD2Ev
_kauth_acl_free
__ZNK20OSCollectionIterator9MetaClass5allocEv
_sooptcopyin
__ZN12IOPMinformee4freeEv
_sysctl_unregister_oid
__ZN9IOService19_RESERVEDIOService8Ev
__ZN19IOPMPowerSourceList9metaClassE
_gIODTPersistKey
_ubc_page_op
__ZN17IOPowerConnectionC1Ev
__ZN22IOInterruptEventSource9MetaClassC2Ev
__ZN15IORegistryEntry11setLocationEPK8OSSymbolPK15IORegistryPlane
__ZN22IOInterruptEventSource32_RESERVEDIOInterruptEventSource2Ev
_ttyfree
_mbuf_flags
__ZN12OSDictionary12removeObjectEPK8OSSymbol
__ZN9OSBooleanD2Ev
__ZN15IOPMPowerSource10gMetaClassE
__ZN10IOWorkLoopC1Ev
_IOMappedWrite8
_device_close
_invalidate_icache
_nop_create
__ZNK12IOPMinformee12getMetaClassEv
__ZN9IOService20_RESERVEDIOService33Ev
__ZNK20RootDomainUserClient9MetaClass5allocEv
__ZN8IOMapper18_RESERVEDIOMapper6Ev
__ZN16IOPlatformExpert15getNubResourcesEP9IOService
_b_to_q
_cdevsw_isfree
_sflt_unregister
__ZN11IOMemoryMap21_RESERVEDIOMemoryMap7Ev
__ZN9IOServiceC1EPK11OSMetaClass
__ZN6OSData10appendByteEhj
_gPEClockFrequencyInfo
_ifnet_lladdr_copy_bytes
__ZTV18_IOServiceNotifier
__ZN15IOConditionLock7tryLockEv
__ZNK7OSArray13getLastObjectEv
__ZN21IOSubMemoryDescriptor12setPurgeableEmPm
__ZN12IODMACommand17getNumAddressBitsEv
_lck_mtx_try_lock
__ZN15IORegistryEntry4freeEv
__ZN22IOInterruptEventSource6enableEv
__ZN14IOPMrootDomain27registerPMSettingControllerEPPK8OSSymboljPFiP8OSObjectS2_S5_mES5_mPS5_
__ZN12OSDictionary9setObjectEPK8OSSymbolPK15OSMetaClassBase
__ZN13IOEventSourceC1EPK11OSMetaClass
__ZN8OSObject18_RESERVEDOSObject5Ev
__ZNK22_IOOpenServiceIterator12getMetaClassEv
_VNOP_FSYNC
_sbappendrecord
__ZN18IOMemoryDescriptor11withAddressEPvm11IODirection
__ZN9IOService14causeInterruptEi
__ZN9IOService20_RESERVEDIOService23Ev
_sysctl_quad
_cluster_bp
__ZNK24IOBufferMemoryDescriptor11getCapacityEv
__ZN10IOWorkLoop19workLoopWithOptionsEm
__ZN12OSOrderedSet14ensureCapacityEj
__ZN8OSSymbol18_RESERVEDOSSymbol3Ev
_lck_rw_init
__ZN8IOMapper5startEP9IOService
_nop_copyfile
_bdevsw_isfree
_vnop_exchange_desc
__ZN25IOGeneralMemoryDescriptor7doUnmapEP7_vm_mapjm
__ZNK15IORegistryEntry12copyPropertyEPK8OSStringPK15IORegistryPlanem
_vfs_ioattr
__ZN29IOInterleavedMemoryDescriptor7prepareE11IODirection
_mbuf_alloccluster
__ZN18IOMemoryDescriptor16getSourceSegmentEmPm
__ZN18IODTPlatformExpert12getModelNameEPci
_hfs_addconverter
_vnode_iterate
__ZN24IOCPUInterruptController34_RESERVEDIOCPUInterruptController4Ev
__ZN10IOWorkLoop9runActionEPFiP8OSObjectPvS2_S2_S2_ES1_S2_S2_S2_S2_
_ifnet_set_addrlen
__ZN15IODMAControllerC1EPK11OSMetaClass
__ZN24IOBufferMemoryDescriptor34_RESERVEDIOBufferMemoryDescriptor5Ev
__ZN28IOFilterInterruptEventSource10gMetaClassE
__ZTV15IORegistryEntry
_uio_curriovlen
__ZN16IOPlatformExpertD1Ev
__ZTV18IOTimerEventSource
__ZN18_IOServiceNotifier9metaClassE
_vnode_vfsname
__ZN20IOLittleMemoryCursor21initWithSpecificationEmmm
__ZN18IOTimerEventSource10wakeAtTimeE13mach_timespec
_version_minor
__ZN26_IOServiceInterestNotifier9metaClassE
__ZN8IOMapper19copyMapperForDeviceEP9IOService
__ZN24IOBufferMemoryDescriptorC2EPK11OSMetaClass
__ZN16IOPMinformeeList10superClassE
_buf_clone
_vnode_clearnocache
_cons_cinput
__ZN13_IOServiceJob10pingConfigEPS_
__ZN9OSBoolean19_RESERVEDOSBoolean4Ev
__ZNK10IOWorkLoop9MetaClass5allocEv
_vfs_context_get_special_port
_IOKitResetTime
__ZTV12IODMACommand
_lck_mtx_alloc_init
_PE_kputc
__ZNK15IORegistryEntry7getNameEPK15IORegistryPlane
_KUNCUserNotificationDisplayNotice
__ZN18IOTimerEventSource4initEP8OSObjectPFvS1_PS_E
_iftovt_tab
__ZNK5OSSet12getAnyObjectEv
__ZN18IORegistryIteratorD0Ev
__ZNK15IORegistryEntry11getPropertyEPKc
__ZN12OSOrderedSetC2EPK11OSMetaClass
__ZN12IODMACommand23_RESERVEDIODMACommand12Ev
_vfs_fsadd
_IOGetTime
_sock_accept
__ZN12OSDictionary22_RESERVEDOSDictionary4Ev
_vm_deallocate
_ether_add_proto
__ZN13_IOServiceJobC2EPK11OSMetaClass
_IOMapperInsertUPLPages
__ZN21IOSubMemoryDescriptor9metaClassE
_lck_spin_alloc_init
_ifnet_set_mtu
__ZN20OSCollectionIterator10superClassE
_ttsetwater
_vnode_writedone
_vnode_vid
__ZN13IOCommandPoolC1Ev
_sysctl_handle_int2quad
_memory_object_page_op
_vfs_removename
_mbuf_gethdr
_mbuf_type
_MD5Update
___stack_chk_guard
_sbuf_putc
__ZN8OSObjectC2EPK11OSMetaClass
__ZNK18IOMemoryDescriptor9getLengthEv
__ZN9IODTNVRAMC2EPK11OSMetaClass
_ipf_remove
_gIODTPlane
__ZN21IOInterruptController31_RESERVEDIOInterruptController0Ev
_IOFindMatchingChild
_sofreelastref
__ZN9IOService9waitQuietEy
_mbuf_inbound_modified
__ZN9IOService19_RESERVEDIOService6Ev
__ZN12IODMACommand10writeBytesEyPKvy
__ZN17IOSharedDataQueue27_RESERVEDIOSharedDataQueue3Ev
__ZN12IORootParent9MetaClassC1Ev
__ZTV12IOUserClient
__ZN8OSNumber18_RESERVEDOSNumber2Ev
__ZNK9IOService12handleIsOpenEPKS_
__ZN8IOSyncer6signalEib
__ZN18IODTPlatformExpert28_RESERVEDIODTPlatformExpert0Ev
_buf_flags
_uio_free
_sflt_register
_semaphore_create
__ZN18IOTimerEventSourceC2EPK11OSMetaClass
_vnode_ischr
__ZN9IOService12waitForStateEmmP13mach_timespec
__ZN18IODTPlatformExpert9MetaClassC2Ev
__ZN22IOInterruptEventSourceC2EPK11OSMetaClass
__ZN16IOPlatformExpert14getConsoleInfoEP8PE_Video
_mbuf_get_csum_performed
__ZN11IOCatalogue4freeEv
_vfs_authopaque
__ZN20IOLittleMemoryCursor17withSpecificationEmmm
__ZNK12IOUserClient12getMetaClassEv
__ZN16IODMAEventSource12checkForWorkEv
__ZN8OSSymbol10superClassE
__ZN18IODTPlatformExpert30createSystemSerialNumberStringEP6OSData
__ZN15IORegistryPlaneC1EPK11OSMetaClass
__ZNK9OSBoolean12getMetaClassEv
__ZN9IOService18getResourceServiceEv
__ZN12IOUserClient22_RESERVEDIOUserClient7Ev
__ZN16IOPlatformExpert12getModelNameEPci
__ZNK13IOEventSource7getNextEv
__ZN9IOService20_RESERVEDIOService14Ev
__ZN8IOMapper19_RESERVEDIOMapper10Ev
__ZN8OSSymbol18_RESERVEDOSSymbol5Ev
__ZN16IORangeAllocator4freeEv
_kauth_cred_issuser
__ZN8OSSymbol21initWithCStringNoCopyEPKc
_lck_mtx_free
_IOCreateThread
__ZN18IODTPlatformExpert10writeXPRAMEmPhm
__ZNK21IONaturalMemoryCursor9MetaClass5allocEv
__ZNK9IOService17getClientIteratorEv
_ipc_port_release_send
_proc_signal
_lck_rw_destroy
__ZN28IOFilterInterruptEventSource9MetaClassC1Ev
__ZN8OSSymbol10gMetaClassE
_kauth_null_guid
_lck_attr_setdefault
__ZN24IOBufferMemoryDescriptor34_RESERVEDIOBufferMemoryDescriptor3Ev
__ZTV5OSSet
__ZTV10IOWorkLoop
_thread_tid
_des_set_key
__ZN16IORangeAllocator8allocateEmPmm
__ZN26_IOServiceInterestNotifier4waitEv
__ZN9IOCommand9metaClassE
__ZN16IOPlatformExpert20callPlatformFunctionEPK8OSSymbolbPvS3_S3_S3_
__ZN15IORegistryEntry25_RESERVEDIORegistryEntry6Ev
__ZN9IOService14activityTickleEmm
__ZN5IOCPU12setCPUNumberEm
__ZN18IOTimerEventSource7timeoutEPv
__ZN18IOMemoryDescriptor14initWithRangesEP14IOVirtualRangem11IODirectionP4taskb
__ZN11OSMetaClass21_RESERVEDOSMetaClass2Ev
__ZN9IODTNVRAM26calculatePartitionChecksumEPh
_clock_timebase_info
__ZN8OSSymbol18_RESERVEDOSSymbol4Ev
__ZN6OSDataD0Ev
__ZN12IODMACommand12OutputHost32EPS_NS_9Segment64EPvm
_mbuf_nextpkt
__ZN13IOCommandPoolC2EPK11OSMetaClass
__ZN14IOMemoryCursorD0Ev
__ZNK15IOConditionLock16getInterruptibleEv
_vnode_mount
__ZN15IORegistryEntry26_RESERVEDIORegistryEntry25Ev
__ZNK10IOWorkLoop6inGateEv
_vnode_getwithvid
_buf_uploffset
__ZN15IODMAController13getControllerEP9IOServicem
__ZN13IOCommandGate23_RESERVEDIOCommandGate7Ev
__ZTV13IOCommandGate
__ZN15IORegistryEntry9MetaClassC2Ev
__ZTV24IOBufferMemoryDescriptor
_is_suser1
__ZN14IOPMrootDomainC1EPK11OSMetaClass
_nop_mknod
_devfs_make_node_clone
__ZN15IORegistryEntry26_RESERVEDIORegistryEntry13Ev
__ZN9IOService16stringFromReturnEi
__ZN16IORangeAllocatorC2EPK11OSMetaClass
__ZN18IODTPlatformExpertD2Ev
__ZN12OSOrderedSet11orderObjectEPK15OSMetaClassBase
_vfs_clearauthopaqueaccess
__ZN5OSSet5mergeEPK7OSArray
__ZN18IOMemoryDescriptor18getPhysicalAddressEv
__ZN10OSIterator20_RESERVEDOSIterator2Ev
__ZN9IOService19_RESERVEDIOService9Ev
_pmc_find_by_name
__ZN28IOFilterInterruptEventSource10superClassE
__ZN17IOPowerConnectionD2Ev
__ZN15IORegistryEntryD0Ev
__ZN18IODTPlatformExpert17readNVRAMPropertyEP15IORegistryEntryPPK8OSSymbolPP6OSData
__ZN12OSSymbolPooldlEPvm
_PEGetModelName
__ZN5OSSet14ensureCapacityEj
__ZN13_IOServiceJob10gMetaClassE
__ZNK9OSBoolean8getValueEv
__ZNK15IOWatchDogTimer12getMetaClassEv
__ZNK16IOPlatformExpert9MetaClass5allocEv
__ZTV26_IOServiceInterestNotifier
__ZN7OSArray9metaClassE
__ZN13IOEventSource9MetaClassC1Ev
_inflateInit2_
__ZNK8OSNumber18unsigned64BitValueEv
__ZNK7OSArray9MetaClass5allocEv
_vnode_rele
_ether_demux
__ZN9IOService14messageClientsEmPvj
_mbuf_inet_cksum
__ZN6OSData16initWithCapacityEj
__ZN27IOSharedInterruptController37_RESERVEDIOSharedInterruptController0Ev
_bsd_set_dependency_capable
_thread_block_parameter
__ZN12OSSymbolPoolC1EPKS_
__ZN13IOCommandPool23_RESERVEDIOCommandPool3Ev
__ZN12IORootParent9metaClassE
__ZN22_IOOpenServiceIterator10superClassE
__ZTV12OSOrderedSet
_clock_absolutetime_interval_to_deadline
__ZNK12OSSerializer9serializeEP11OSSerialize
__ZNK8OSObject12taggedRetainEPKv
__ZN17IOSharedDataQueue10superClassE
_buf_reset
__ZN20OSCollectionIterator13getNextObjectEv
__ZN9IOService15terminatePhase1Em
__ZN15IORegistryEntry26_RESERVEDIORegistryEntry18Ev
__ZN17IOPowerConnection21setDesiredDomainStateEm
__ZN9IOService10gMetaClassE
_vnop_revoke_desc
__ZN12IORootParent10dozeSystemEv
__ZN16IOPlatformDevice26_RESERVEDIOPlatformDevice2Ev
__ZN12OSCollection22_RESERVEDOSCollection7Ev
_IOLockAlloc
_vnode_issystem
_kdp_register_send_receive
_bcmp
_debug_container_malloc_size
__ZN9IOService23registryEntryIDMatchingEyP12OSDictionary
_IOMalloc
__ZNK9IOService12getMetaClassEv
__ZNK21IOSubMemoryDescriptor9MetaClass5allocEv
__ZN18IOUserNotification15setNotificationEP10IONotifier
_PE_cpu_machine_quiesce
__ZN7OSArray12removeObjectEj
__ZN18IORegistryIterator17getNextObjectFlatEv
__ZTVN15IOConditionLock9MetaClassE
_m_pullup
_ifmaddr_lladdress
__ZN21IOSubMemoryDescriptor9MetaClassC1Ev
_ifnet_addrlen
__ZN15OSMetaClassBase25_RESERVEDOSMetaClassBase7Ev
__ZN9IODTNVRAM22readNVRAMPropertyType0EP15IORegistryEntryPPK8OSSymbolPP6OSData
__ZN18IODTPlatformExpert9metaClassE
__ZN18IODTPlatformExpert9readXPRAMEmPhm
_proto_unregister_plumber
__ZN13IOCommandGate10gMetaClassE
_mbuf_copyback
__ZN9IOService10youAreRootEv
_semaphore_timedwait
__ZN18IOMemoryDescriptor19withPhysicalAddressEmm11IODirection
_sbappendaddr
__ZN10IOMachPortC1EPK11OSMetaClass
_lck_rw_lock_exclusive_to_shared
_KUNCUserNotificationDisplayAlert
__ZNK10IOMachPort12getMetaClassEv
__ZN12IODMACommand9MetaClassC1Ev
__ZTV15OSMetaClassMeta
__ZNK6OSData9isEqualToEPK15OSMetaClassBase
__ZN12OSOrderedSetD0Ev
_ml_probe_read
__ZN12OSDictionaryC2Ev
_IOSimpleLockFree
